(dp1
S'output'
p2
S''
sS'layer'
p3
S'/Users/rayelward/Downloads/web2py/web2py.app/Contents/Resources/applications/init/views/default/recents.html'
p4
sS'code'
p5
S'response.write(\'<!DOCTYPE html>\\n<html lang="\', escape=False)\nresponse.write(T.accepted_language or \'en\')\nresponse.write(\'" class="no-js"><!-- no-js need it for modernzr -->\\n  <head>\\n    \\n    <meta charset="utf-8" />        \\n    <!-- www.phpied.com/conditional-comments-block-downloads/ -->\\n    <!-- Always force latest IE rendering engine \\n       (even in intranet) & Chrome Frame \\n       Remove this if you use the .htaccess --> \\n    <!--[if IE]> \\n      <meta http-equiv="X-UA-Compatible" content="IE=edge,chrome=1"> \\n    <![endif]--> \\n\\n    <title>\', escape=False)\nresponse.write(response.title or request.application)\nresponse.write(\'</title>\\n    \\n    <!-- http://dev.w3.org/html5/markup/meta.name.html -->\\n    <meta name="application-name" content="\', escape=False)\nresponse.write(request.application)\nresponse.write(\'" /> \\n    \\n    <!-- Speaking of Google, don\\\'t forget to set your site up: \\n     http://google.com/webmasters -->\\n    <meta name="google-site-verification" content="mt3SVE-ahGmjhWxdjmm8Vv0QxUEDhLBnkFJXyXD3VTs" />\\n    \\n    <!--  Mobile Viewport Fix\\n      j.mp/mobileviewport & davidbcalhoun.com/2010/viewport-metatag \\n      device-width: Occupy full width of the screen in its current orientation\\n      initial-scale = 1.0 retains dimensions instead of zooming out if page height > device height\\n      maximum-scale = 1.0 retains dimensions instead of zooming in if page width < device width\\n      -->\\n    <meta name="viewport" content="width=device-width, initial-scale=1.0, maximum-scale=1.0">\\n    \\n    <!-- Place favicon.ico and apple-touch-icon.png in the root of your domain and delete these references -->\\n    <link rel="shortcut icon" href="\', escape=False)\nresponse.write(URL(\'static\',\'favicon.ico\'))\nresponse.write(\'" type="image/x-icon">\\n    <link rel="apple-touch-icon" href="\', escape=False)\nresponse.write(URL(\'static\',\'favicon.png\'))\nresponse.write(\'">\\n\\n    <!-- For the less-enabled mobile browsers like Opera Mini -->\\n    <link rel="stylesheet" media="handheld" href="\', escape=False)\nresponse.write(URL(\'static\',\'css/handheld.css\'))\nresponse.write(\'">\\n    \\n    <!-- All JavaScript at the bottom, except for Modernizr which enables HTML5 elements & feature detects -->\\n    <script src="\', escape=False)\nresponse.write(URL(\'static\',\'js/modernizr-1.7.min.js\'))\nresponse.write(\'"></script>\\n    \\n    \', escape=False)\n#------  require CSS and JS files for this page (read info in base.css) ------\nresponse.write(\'\\n    \', escape=False)\nresponse.files.append(URL(\'static\',\'css/base.css\'))\nresponse.write(\'\\n    \', escape=False)\nresponse.files.append(URL(\'static\',\'css/superfish.css\'))\nresponse.write(\'\\n    \', escape=False)\nresponse.files.append(URL(\'static\',\'js/superfish.js\'))\nresponse.write(\'\\n    \', escape=False)\n#------ include web2py specific js code (jquery, calendar, form stuff) ------\nresponse.write(\'\\n    \', escape=False)\nresponse.files.insert(0,URL(\'static\',\'js/jquery.js\'))\nresponse.files.insert(1,URL(\'static\',\'css/anytime.css\'))\nresponse.files.insert(2,URL(\'static\',\'js/anytime.js\'))\nresponse.include_meta()\nresponse.include_files()\nresponse.write(\'\\n<script type="text/javascript"><!--\\n    // These variables are used by the web2py_ajax_init function in web2py_ajax.js (which is loaded below).\\n    var w2p_ajax_confirm_message = "\', escape=False)\nresponse.write(T(\'Are you sure you want to delete this object?\'))\nresponse.write(\'";\\n    var w2p_ajax_date_format = "\', escape=False)\nresponse.write(T(\'%Y-%m-%d\'))\nresponse.write(\'";\\n    var w2p_ajax_datetime_format = "\', escape=False)\nresponse.write(T(\'%Y-%m-%d %H:%M:%S\'))\nresponse.write(\'";\\n    //--></script>\\n    <script src="\', escape=False)\nresponse.write(URL(\'static\',\'js/web2py_ajax.js\'))\nresponse.write(\'" type="text/javascript"></script>\\n\', escape=False)\nresponse.write(\'\\n\\n    \', escape=False)\n#using sidebars need to know what sidebar you want to use\n#prior of using it, because of static width size of content, you can use\n#left_sidebar, right_sidebar, both or none (False left and right)\nleft_sidebar_enabled = globals().get(\'left_sidebar_enabled\',False)\nright_sidebar_enabled = globals().get(\'right_sidebar_enabled\',False)\nright_sidebar_enabled True\nif left_sidebar_enabled and right_sidebar_enabled: width_content=\'63%\'\nelif left_sidebar_enabled != right_sidebar_enabled: width_content=\'720px\'\nelse: width_content=\'100%\'\nif left_sidebar_enabled: left_sidebar_style = \'style="display: block;"\'\nelse: left_sidebar_style = \'style="display: none;"\'\nif right_sidebar_enabled: right_sidebar_style = \'style="display: block;"\'\nelse: right_sidebar_style = \'style="display: none;"\'\nstyle_content = \'style="width: %s"\' % width_content\nresponse.write(\'\\n    \\n    <!-- uncomment here to load jquery-ui -->\\n    \\n    <link rel="stylesheet" href="http://ajax.googleapis.com/ajax/libs/jqueryui/1.8.16/themes/base/jquery-ui.css" type="text/css" media="all" />\\n    <script src="http://ajax.googleapis.com/ajax/libs/jqueryui/1.8.16/jquery-ui.min.js" type="text/javascript"></script>\\n    \\n   <!-- uncomment to load jquery-ui -->\\n    \\n  <script type="text/javascript">\\n\\n  var _gaq = _gaq || [];\\n  _gaq.push([\\\'_setAccount\\\', \\\'UA-26980302-1\\\']);\\n  _gaq.push([\\\'_trackPageview\\\']);\\n\\n  (function() {\\n    var ga = document.createElement(\\\'script\\\'); ga.type = \\\'text/javascript\\\'; ga.async = true;\\n    ga.src = (\\\'https:\\\' == document.location.protocol ? \\\'https://ssl\\\' : \\\'http://www\\\') + \\\'.google-analytics.com/ga.js\\\';\\n    var s = document.getElementsByTagName(\\\'script\\\')[0]; s.parentNode.insertBefore(ga, s);\\n  })();\\n\\n</script>  \\n  </head>\\n  \\n  <!-- paulirish.com/2008/conditional-stylesheets-vs-css-hacks-answer-neither/ -->  \\n  <!--[if lt IE 7 ]> <body class="ie6"> <![endif]-->\\n  <!--[if IE 7 ]>    <body class="ie7"> <![endif]-->\\n  <!--[if IE 8 ]>    <body class="ie8"> <![endif]-->\\n  <!--[if IE 9 ]>    <body class="ie9"> <![endif]-->\\n  <!--[if (gt IE 9)|!(IE)]><!--> <body> <!--<![endif]-->\\n    \\n    <div class="flash">\', escape=False)\nresponse.write(response.flash or \'\')\nresponse.write(\'</div> <!-- notification div -->\\n\\n        \\n\\n    <div id="container">                        \\n      \\n      <div id="wrapper">        \\n      <!--\', escape=False)\ntry:\n    response.write(auth.navbar(action=URL(\'default\',\'user\')))\nexcept:pass\nresponse.write(\' \\n          This section taken out because their is no users unless in moderation channel-->\\n    \\n    <div id="header"> <!-- header and login nav -->\\n      \', escape=False)\nresponse.write(\' <!-- this is default header -->\\n      \\n      <h1>\\n        <span id="appname"><img src="\', escape=False)\nresponse.write(URL(\'static\',\'lioli_header.jpg\'))\nresponse.write(\'" alt="LIOLI" height="100px" width="171px"/></span>\\n      </h1>\\n      <div style="clear: both;"></div><!-- Clear the divs -->\\n      \', escape=False)\nresponse.write(\'\\n    </div><!-- header  -->\\n    \\n    <div id="statusbar"><!-- statusbar is menu zone -->\\n      \', escape=False)\nresponse.write(\' <!-- this is default statusbar -->\\n      \', escape=False)\n#------ superfish menu ------\nresponse.write(\'\\n      \', escape=False)\nresponse.write(MENU(response.menu,_class=\'sf-menu\'))\nresponse.write(\'\\n      <script type="text/javascript">\\n        jQuery(document).ready(function(){\\n        jQuery(\\\'ul.sf-menu\\\').superfish();});\\n      </script>\\n\\n      <!-- AddToAny BEGIN -->\\n      <div style="padding: 7px; float:right;" class="a2a_kit a2a_default_style"><a class="a2a_dd" href="http://www.addtoany.com/share_save">Share</a></div><script type="text/javascript" src="http://static.addtoany.com/menu/page.js"></script>\\n      <!-- AddToAny END -->\\n\\n      <div style="clear: both;"></div><!-- Clear the divs -->   \\n      \', escape=False)\nresponse.write(\'               \\n    </div><!-- statusbar -->\\n    \\n    <div id="page"> <!-- Here my central body -->     \\n\\n      \', escape=False)\nif left_sidebar_enabled:\n    response.write(\'\\n          <div id="left_sidebar" \', escape=False)\n    response.write(XML(left_sidebar_style))\n    response.write(\' >\\n            <div style="padding: 4px;">\\n          \', escape=False)\n    response.write(\'Content Left Sidebar\', escape=False)\n    response.write(\'       \\n            </div>\\n          </div><!-- left_sidebar -->\\n      \', escape=False)\n    pass\nresponse.write(\'\\n\\n      <!-- content -->\\n      <div id="content" \', escape=False)\nresponse.write(XML(style_content))\nresponse.write(\' >\\n        \', escape=False)\nresponse.write(\'\\n\\n<link rel="stylesheet" href="\', escape=False)\nresponse.write(URL(\'static\',\'css/default.css\'))\nresponse.write(\'">\\n\\n\\n\\n\', escape=False)\nresponse.write(\'<form ><input type="hidden" name="id" id="id" value="" /></form>\\n<UL>\\n\', escape=False)\nfor row in rows:\n    response.write(\'\\n    <li><span class="u_id">\', escape=False)\n    response.write(row.unique_id)\n    response.write(\'</span>\\n        <br><span class="body">\\n        \', escape=False)\n    response.write(row.body)\n    response.write(\'\\n        </span>\\n        <br>\\n        <span class="age_gender">Age: \', escape=False)\n    response.write(row.age)\n    response.write(\' Gender: \', escape=False)\n    response.write(row.gender)\n    response.write(\'</span>\\n        <br/>\\n        <div class="vote_buttons">\\n        <span class="love_answer"id="love_answer\', escape=False)\n    response.write(row.id)\n    response.write(\'" style="display: none">Loves: \\n        <span id="love_row\', escape=False)\n    response.write(row.id)\n    response.write(\'"> \', escape=False)\n    response.write(row.loves)\n    response.write(\'\\n        </span>\\n        </span>\\n        <span id="love_button\', escape=False)\n    response.write(row.id)\n    response.write(\'">\\n        <span onclick="jQuery(\\\'#love_button\', escape=False)\n    response.write(row.id)\n    response.write("\').hide();\\n                jQuery(\'#love_answer", escape=False)\n    response.write(row.id)\n    response.write("\').show();\\n                jQuery(\'#leave_button", escape=False)\n    response.write(row.id)\n    response.write("\').hide();\\n                jQuery(\'#leave_answer", escape=False)\n    response.write(row.id)\n    response.write("\').show();\\n                jQuery(\'#id\').val(\'", escape=False)\n    response.write(row.id)\n    response.write("\');\\n                ajax(\'add_loves\', [\'id\'], \'love_row", escape=False)\n    response.write(row.id)\n    response.write(\'\\\');\\n                "> \\n        <input type="image" src="\', escape=False)\n    response.write(URL(\'static\',\'love_button.png\'))\n    response.write(\'"  class="vote_button" width="75px", height="31px"></input>\\n        </span>\\n        </span>\\n                \\n        <span class="leave_answer" id="leave_answer\', escape=False)\n    response.write(row.id)\n    response.write(\'" style="display: none">Leaves: \\n        <span id="leave_row\', escape=False)\n    response.write(row.id)\n    response.write(\'"> \', escape=False)\n    response.write(row.leaves)\n    response.write(\'\\n        </span>\\n        </span>\\n        <span id="leave_button\', escape=False)\n    response.write(row.id)\n    response.write(\'">\\n        <span onclick="jQuery(\\\'#love_button\', escape=False)\n    response.write(row.id)\n    response.write("\').hide();\\n                jQuery(\'#love_answer", escape=False)\n    response.write(row.id)\n    response.write("\').show();\\n                jQuery(\'#leave_button", escape=False)\n    response.write(row.id)\n    response.write("\').hide();\\n                jQuery(\'#leave_answer", escape=False)\n    response.write(row.id)\n    response.write("\').show();\\n                jQuery(\'#id\').val(\'", escape=False)\n    response.write(row.id)\n    response.write("\');\\n                ajax(\'add_leaves\', [\'id\'], \'leave_row", escape=False)\n    response.write(row.id)\n    response.write(\'\\\');"\\n                > \\n        <input type="image" src="\', escape=False)\n    response.write(URL(\'static\',\'leave_button.png\'))\n    response.write(\'"  class="vote_button" width="75px", height="31px"></input>\\n        </span>\\n        </span>\\n    </div>\\n    </li>\\n    <br>\\n    <br>\\n    \', escape=False)\n    pass\nresponse.write(\'\\n</UL>\\n\', escape=False)\nresponse.write(\'\\n\\n\', escape=False)\npage = request.vars.page or 0\nresponse.write(\'\\n\', escape=False)\npage = int(page)\nresponse.write(\'\\n<span class="previous">\\n\', escape=False)\nif page > 0:\n    response.write(\'\\n<a href="\', escape=False)\n    response.write(URL(vars={\'page\': page - 1}))\n    response.write(\'">previous</a>\\n\', escape=False)\n    pass\nresponse.write(\'\\n</span>\\n\\n\', escape=False)\nif page < total_pages:\n    response.write(\'\\n\\n<span class="next">\\n<a href="\', escape=False)\n    response.write(URL(vars={\'page\': page + 1}))\n    response.write(\'">next</a>\\n\', escape=False)\n    pass\nresponse.write(\'</span>\\n\', escape=False)\nresponse.write(\' \\n      </div>\\n      <!-- content -->\\n\\n      \', escape=False)\nif right_sidebar_enabled:\n    response.write(\'\\n          <div id="right_sidebar" \', escape=False)\n    response.write(XML(right_sidebar_style))\n    response.write(\' >\\n            <div style="padding: 4px;">\\n              <!--\', escape=False)\n    response.write(\'Content Right Sidebar\', escape=False)\n    response.write(\'-->\\n              <div id="ad" style="float : right"><a href="http://itunes.apple.com/us/app/love-it-or-leave-it!/id436692112?ls=1&mt=8"><img src="\', escape=False)\n    response.write(URL(\'static\',\'side_banner\'))\n    response.write(\'"/></a></div>\\n            </div>\\n      </div><!-- right_sidebar -->\\n          \', escape=False)\n    pass\nresponse.write(\'\\n\\n\\n      <div style="clear: both;"></div><!-- Clear the divs -->\\n     \\n    </div><!-- page -->                         \\n    \\n    <div>\\n\\n    </div><!-- footer -->\\n\\n      </div><!-- wrapper -->\\n    </div><!-- container -->  \\n    <!--[if lt IE 7 ]>\\n    <script src="\', escape=False)\nresponse.write(URL(\'static\',\'js/dd_belatedpng.js\'))\nresponse.write(\'"></script>\\n    <script> DD_belatedPNG.fix(\\\'img, .png_bg\\\'); //fix any <img> or .png_bg background-images </script>\\n    <![endif]-->\\n    \', escape=False)\nif response.google_analytics_id:\n    response.write("<script>/* http://mathiasbynens.be/notes/async-analytics-snippet */ var _gaq=[[\'_setAccount\',\'", escape=False)\n    response.write(response.google_analytics_id)\n    response.write("\'],[\'_trackPageview\']];(function(d,t){var g=d.createElement(t),s=d.getElementsByTagName(t)[0];g.src=\'//www.google-analytics.com/ga.js\';s.parentNode.insertBefore(g,s)}(document,\'script\')) </script>", escape=False)\n    pass\nresponse.write(\'\\n  </body>\\n</html>\\n\', escape=False)'
p6
sS'snapshot'
p7
(dp8
S'exception'
p9
(dp10
S'__getslice__'
p11
S"<method-wrapper '__getslice__' of exceptions.SyntaxError object at 0x7265d70>"
p12
sS'text'
p13
S"'right_sidebar_enabled True\\n'"
p14
sS'__str__'
p15
S"<method-wrapper '__str__' of exceptions.SyntaxError object at 0x7265d70>"
p16
sS'__reduce__'
p17
S'<built-in method __reduce__ of exceptions.SyntaxError object at 0x7265d70>'
p18
sS'__dict__'
p19
S'{}'
p20
sS'__init__'
p21
S"<method-wrapper '__init__' of exceptions.SyntaxError object at 0x7265d70>"
p22
sS'__setattr__'
p23
S"<method-wrapper '__setattr__' of exceptions.SyntaxError object at 0x7265d70>"
p24
sS'__reduce_ex__'
p25
S'<built-in method __reduce_ex__ of exceptions.SyntaxError object at 0x7265d70>'
p26
sS'__new__'
p27
S'<built-in method __new__ of type object at 0x6f9320>'
p28
sS'__class__'
p29
S"<type 'exceptions.SyntaxError'>"
p30
sS'filename'
p31
S"'/Users/rayelward/Downloads/web2py/web2py.app/Con...rces/applications/init/views/default/recents.html'"
p32
sS'lineno'
p33
S'46'
p34
sS'msg'
p35
S"'invalid syntax'"
p36
sS'__doc__'
p37
S"'Invalid syntax.'"
p38
sS'__getitem__'
p39
S"<method-wrapper '__getitem__' of exceptions.SyntaxError object at 0x7265d70>"
p40
sS'__setstate__'
p41
S'<built-in method __setstate__ of exceptions.SyntaxError object at 0x7265d70>'
p42
sS'__getattribute__'
p43
S"<method-wrapper '__getattribute__' of exceptions.SyntaxError object at 0x7265d70>"
p44
sS'print_file_and_line'
p45
S'None'
p46
sS'args'
p47
S"('invalid syntax', ('/Users/rayelward/Downloads/web2py/web2py.app/Con...rces/applications/init/views/default/recents.html', 46, 26, 'right_sidebar_enabled True\\n'))"
p48
sS'offset'
p49
S'26'
p50
sS'__delattr__'
p51
S"<method-wrapper '__delattr__' of exceptions.SyntaxError object at 0x7265d70>"
p52
sS'__repr__'
p53
S"<method-wrapper '__repr__' of exceptions.SyntaxError object at 0x7265d70>"
p54
sS'__hash__'
p55
S"<method-wrapper '__hash__' of exceptions.SyntaxError object at 0x7265d70>"
p56
ssS'evalue'
p57
S'invalid syntax (recents.html, line 46)'
p58
sS'request'
p59
ccopy_reg
_reconstructor
p60
(cgluon.html
BEAUTIFY
p61
c__builtin__
object
p62
NtRp63
(dp64
S'attributes'
p65
(dp66
sS'components'
p67
(lp68
g60
(cgluon.html
TABLE
p69
g62
NtRp70
(dp71
g65
(dp72
S'level'
p73
I5
ssS'parent'
p74
Nsg67
(lp75
g60
(cgluon.html
TR
p76
g62
NtRp77
(dp78
g65
(dp79
sg74
g70
sg67
(lp80
g60
(cgluon.html
TD
p81
g62
NtRp82
(dp83
g65
(dp84
S'_style'
p85
S'font-weight:bold;'
p86
ssg74
g77
sg67
(lp87
S'ajax'
p88
asbag60
(g81
g62
NtRp89
(dp90
g65
(dp91
S'_valign'
p92
S'top'
p93
ssg74
g77
sg67
(lp94
S':'
asbag60
(g81
g62
NtRp95
(dp96
g65
(dp97
sg74
g77
sg67
(lp98
g60
(g61
g62
NtRp99
(dp100
g65
(dp101
g73
I5
ssg74
g95
sg67
(lp102
S'False'
p103
asbasbasbag60
(g76
g62
NtRp104
(dp105
g65
(dp106
sg74
g70
sg67
(lp107
g60
(g81
g62
NtRp108
(dp109
g65
(dp110
g85
g86
ssg74
g104
sg67
(lp111
S'application'
p112
asbag60
(g81
g62
NtRp113
(dp114
g65
(dp115
g92
g93
ssg74
g104
sg67
(lp116
S':'
asbag60
(g81
g62
NtRp117
(dp118
g65
(dp119
sg74
g104
sg67
(lp120
g60
(g61
g62
NtRp121
(dp122
g65
(dp123
g73
I5
ssg74
g117
sg67
(lp124
S'init'
p125
asbasbasbag60
(g76
g62
NtRp126
(dp127
g65
(dp128
sg74
g70
sg67
(lp129
g60
(g81
g62
NtRp130
(dp131
g65
(dp132
g85
g86
ssg74
g126
sg67
(lp133
g47
asbag60
(g81
g62
NtRp134
(dp135
g65
(dp136
g92
g93
ssg74
g126
sg67
(lp137
S':'
asbag60
(g81
g62
NtRp138
(dp139
g65
(dp140
sg74
g126
sg67
(lp141
g60
(g61
g62
NtRp142
(dp143
g65
(dp144
g73
I5
ssg74
g138
sg67
(lp145
g60
(g69
g62
NtRp146
(dp147
g65
(dp148
g73
I4
ssg74
Nsg67
(lp149
sbasbasbasbag60
(g76
g62
NtRp150
(dp151
g65
(dp152
sg74
g70
sg67
(lp153
g60
(g81
g62
NtRp154
(dp155
g65
(dp156
g85
g86
ssg74
g150
sg67
(lp157
S'body'
p158
asbag60
(g81
g62
NtRp159
(dp160
g65
(dp161
g92
g93
ssg74
g150
sg67
(lp162
S':'
asbag60
(g81
g62
NtRp163
(dp164
g65
(dp165
sg74
g150
sg67
(lp166
g60
(g61
g62
NtRp167
(dp168
g65
(dp169
g73
I5
ssg74
g163
sg67
(lp170
S'<cStringIO.StringO object at 0x85339c0>'
p171
asbasbasbag60
(g76
g62
NtRp172
(dp173
g65
(dp174
sg74
g70
sg67
(lp175
g60
(g81
g62
NtRp176
(dp177
g65
(dp178
g85
g86
ssg74
g172
sg67
(lp179
S'client'
p180
asbag60
(g81
g62
NtRp181
(dp182
g65
(dp183
g92
g93
ssg74
g172
sg67
(lp184
S':'
asbag60
(g81
g62
NtRp185
(dp186
g65
(dp187
sg74
g172
sg67
(lp188
g60
(g61
g62
NtRp189
(dp190
g65
(dp191
g73
I5
ssg74
g185
sg67
(lp192
S'127.0.0.1'
p193
asbasbasbag60
(g76
g62
NtRp194
(dp195
g65
(dp196
sg74
g70
sg67
(lp197
g60
(g81
g62
NtRp198
(dp199
g65
(dp200
g85
g86
ssg74
g194
sg67
(lp201
S'controller'
p202
asbag60
(g81
g62
NtRp203
(dp204
g65
(dp205
g92
g93
ssg74
g194
sg67
(lp206
S':'
asbag60
(g81
g62
NtRp207
(dp208
g65
(dp209
sg74
g194
sg67
(lp210
g60
(g61
g62
NtRp211
(dp212
g65
(dp213
g73
I5
ssg74
g207
sg67
(lp214
S'default'
p215
asbasbasbag60
(g76
g62
NtRp216
(dp217
g65
(dp218
sg74
g70
sg67
(lp219
g60
(g81
g62
NtRp220
(dp221
g65
(dp222
g85
g86
ssg74
g216
sg67
(lp223
S'cookies'
p224
asbag60
(g81
g62
NtRp225
(dp226
g65
(dp227
g92
g93
ssg74
g216
sg67
(lp228
S':'
asbag60
(g81
g62
NtRp229
(dp230
g65
(dp231
sg74
g216
sg67
(lp232
g60
(g61
g62
NtRp233
(dp234
g65
(dp235
g73
I5
ssg74
g229
sg67
(lp236
g60
(g69
g62
NtRp237
(dp238
g65
(dp239
g73
I4
ssg74
Nsg67
(lp240
g60
(g76
g62
NtRp241
(dp242
g65
(dp243
sg74
g237
sg67
(lp244
g60
(g81
g62
NtRp245
(dp246
g65
(dp247
g85
g86
ssg74
g241
sg67
(lp248
S'session_id_admin'
p249
asbag60
(g81
g62
NtRp250
(dp251
g65
(dp252
g92
g93
ssg74
g241
sg67
(lp253
S':'
asbag60
(g81
g62
NtRp254
(dp255
g65
(dp256
sg74
g241
sg67
(lp257
g60
(g61
g62
NtRp258
(dp259
g65
(dp260
g73
I4
ssg74
g254
sg67
(lp261
g60
(g69
g62
NtRp262
(dp263
g65
(dp264
g73
I3
ssg74
Nsg67
(lp265
g60
(g76
g62
NtRp266
(dp267
g65
(dp268
sg74
g262
sg67
(lp269
g60
(g81
g62
NtRp270
(dp271
g65
(dp272
g85
g86
ssg74
g266
sg67
(lp273
S'comment'
p274
asbag60
(g81
g62
NtRp275
(dp276
g65
(dp277
g92
g93
ssg74
g266
sg67
(lp278
S':'
asbag60
(g81
g62
NtRp279
(dp280
g65
(dp281
sg74
g266
sg67
(lp282
g60
(g61
g62
NtRp283
(dp284
g65
(dp285
g73
I3
ssg74
g279
sg67
(lp286
S''
asbasbasbag60
(g76
g62
NtRp287
(dp288
g65
(dp289
sg74
g262
sg67
(lp290
g60
(g81
g62
NtRp291
(dp292
g65
(dp293
g85
g86
ssg74
g287
sg67
(lp294
S'domain'
p295
asbag60
(g81
g62
NtRp296
(dp297
g65
(dp298
g92
g93
ssg74
g287
sg67
(lp299
S':'
asbag60
(g81
g62
NtRp300
(dp301
g65
(dp302
sg74
g287
sg67
(lp303
g60
(g61
g62
NtRp304
(dp305
g65
(dp306
g73
I3
ssg74
g300
sg67
(lp307
S''
asbasbasbag60
(g76
g62
NtRp308
(dp309
g65
(dp310
sg74
g262
sg67
(lp311
g60
(g81
g62
NtRp312
(dp313
g65
(dp314
g85
g86
ssg74
g308
sg67
(lp315
S'expires'
p316
asbag60
(g81
g62
NtRp317
(dp318
g65
(dp319
g92
g93
ssg74
g308
sg67
(lp320
S':'
asbag60
(g81
g62
NtRp321
(dp322
g65
(dp323
sg74
g308
sg67
(lp324
g60
(g61
g62
NtRp325
(dp326
g65
(dp327
g73
I3
ssg74
g321
sg67
(lp328
S''
asbasbasbag60
(g76
g62
NtRp329
(dp330
g65
(dp331
sg74
g262
sg67
(lp332
g60
(g81
g62
NtRp333
(dp334
g65
(dp335
g85
g86
ssg74
g329
sg67
(lp336
S'max-age'
p337
asbag60
(g81
g62
NtRp338
(dp339
g65
(dp340
g92
g93
ssg74
g329
sg67
(lp341
S':'
asbag60
(g81
g62
NtRp342
(dp343
g65
(dp344
sg74
g329
sg67
(lp345
g60
(g61
g62
NtRp346
(dp347
g65
(dp348
g73
I3
ssg74
g342
sg67
(lp349
S''
asbasbasbag60
(g76
g62
NtRp350
(dp351
g65
(dp352
sg74
g262
sg67
(lp353
g60
(g81
g62
NtRp354
(dp355
g65
(dp356
g85
g86
ssg74
g350
sg67
(lp357
S'path'
p358
asbag60
(g81
g62
NtRp359
(dp360
g65
(dp361
g92
g93
ssg74
g350
sg67
(lp362
S':'
asbag60
(g81
g62
NtRp363
(dp364
g65
(dp365
sg74
g350
sg67
(lp366
g60
(g61
g62
NtRp367
(dp368
g65
(dp369
g73
I3
ssg74
g363
sg67
(lp370
S''
asbasbasbag60
(g76
g62
NtRp371
(dp372
g65
(dp373
sg74
g262
sg67
(lp374
g60
(g81
g62
NtRp375
(dp376
g65
(dp377
g85
g86
ssg74
g371
sg67
(lp378
S'secure'
p379
asbag60
(g81
g62
NtRp380
(dp381
g65
(dp382
g92
g93
ssg74
g371
sg67
(lp383
S':'
asbag60
(g81
g62
NtRp384
(dp385
g65
(dp386
sg74
g371
sg67
(lp387
g60
(g61
g62
NtRp388
(dp389
g65
(dp390
g73
I3
ssg74
g384
sg67
(lp391
S''
asbasbasbag60
(g76
g62
NtRp392
(dp393
g65
(dp394
sg74
g262
sg67
(lp395
g60
(g81
g62
NtRp396
(dp397
g65
(dp398
g85
g86
ssg74
g392
sg67
(lp399
S'version'
p400
asbag60
(g81
g62
NtRp401
(dp402
g65
(dp403
g92
g93
ssg74
g392
sg67
(lp404
S':'
asbag60
(g81
g62
NtRp405
(dp406
g65
(dp407
sg74
g392
sg67
(lp408
g60
(g61
g62
NtRp409
(dp410
g65
(dp411
g73
I3
ssg74
g405
sg67
(lp412
S''
asbasbasbasbasbasbasbag60
(g76
g62
NtRp413
(dp414
g65
(dp415
sg74
g237
sg67
(lp416
g60
(g81
g62
NtRp417
(dp418
g65
(dp419
g85
g86
ssg74
g413
sg67
(lp420
S'session_id_init'
p421
asbag60
(g81
g62
NtRp422
(dp423
g65
(dp424
g92
g93
ssg74
g413
sg67
(lp425
S':'
asbag60
(g81
g62
NtRp426
(dp427
g65
(dp428
sg74
g413
sg67
(lp429
g60
(g61
g62
NtRp430
(dp431
g65
(dp432
g73
I4
ssg74
g426
sg67
(lp433
g60
(g69
g62
NtRp434
(dp435
g65
(dp436
g73
I3
ssg74
Nsg67
(lp437
g60
(g76
g62
NtRp438
(dp439
g65
(dp440
sg74
g434
sg67
(lp441
g60
(g81
g62
NtRp442
(dp443
g65
(dp444
g85
g86
ssg74
g438
sg67
(lp445
g274
asbag60
(g81
g62
NtRp446
(dp447
g65
(dp448
g92
g93
ssg74
g438
sg67
(lp449
S':'
asbag60
(g81
g62
NtRp450
(dp451
g65
(dp452
sg74
g438
sg67
(lp453
g60
(g61
g62
NtRp454
(dp455
g65
(dp456
g73
I3
ssg74
g450
sg67
(lp457
S''
asbasbasbag60
(g76
g62
NtRp458
(dp459
g65
(dp460
sg74
g434
sg67
(lp461
g60
(g81
g62
NtRp462
(dp463
g65
(dp464
g85
g86
ssg74
g458
sg67
(lp465
g295
asbag60
(g81
g62
NtRp466
(dp467
g65
(dp468
g92
g93
ssg74
g458
sg67
(lp469
S':'
asbag60
(g81
g62
NtRp470
(dp471
g65
(dp472
sg74
g458
sg67
(lp473
g60
(g61
g62
NtRp474
(dp475
g65
(dp476
g73
I3
ssg74
g470
sg67
(lp477
S''
asbasbasbag60
(g76
g62
NtRp478
(dp479
g65
(dp480
sg74
g434
sg67
(lp481
g60
(g81
g62
NtRp482
(dp483
g65
(dp484
g85
g86
ssg74
g478
sg67
(lp485
g316
asbag60
(g81
g62
NtRp486
(dp487
g65
(dp488
g92
g93
ssg74
g478
sg67
(lp489
S':'
asbag60
(g81
g62
NtRp490
(dp491
g65
(dp492
sg74
g478
sg67
(lp493
g60
(g61
g62
NtRp494
(dp495
g65
(dp496
g73
I3
ssg74
g490
sg67
(lp497
S''
asbasbasbag60
(g76
g62
NtRp498
(dp499
g65
(dp500
sg74
g434
sg67
(lp501
g60
(g81
g62
NtRp502
(dp503
g65
(dp504
g85
g86
ssg74
g498
sg67
(lp505
g337
asbag60
(g81
g62
NtRp506
(dp507
g65
(dp508
g92
g93
ssg74
g498
sg67
(lp509
S':'
asbag60
(g81
g62
NtRp510
(dp511
g65
(dp512
sg74
g498
sg67
(lp513
g60
(g61
g62
NtRp514
(dp515
g65
(dp516
g73
I3
ssg74
g510
sg67
(lp517
S''
asbasbasbag60
(g76
g62
NtRp518
(dp519
g65
(dp520
sg74
g434
sg67
(lp521
g60
(g81
g62
NtRp522
(dp523
g65
(dp524
g85
g86
ssg74
g518
sg67
(lp525
g358
asbag60
(g81
g62
NtRp526
(dp527
g65
(dp528
g92
g93
ssg74
g518
sg67
(lp529
S':'
asbag60
(g81
g62
NtRp530
(dp531
g65
(dp532
sg74
g518
sg67
(lp533
g60
(g61
g62
NtRp534
(dp535
g65
(dp536
g73
I3
ssg74
g530
sg67
(lp537
S''
asbasbasbag60
(g76
g62
NtRp538
(dp539
g65
(dp540
sg74
g434
sg67
(lp541
g60
(g81
g62
NtRp542
(dp543
g65
(dp544
g85
g86
ssg74
g538
sg67
(lp545
g379
asbag60
(g81
g62
NtRp546
(dp547
g65
(dp548
g92
g93
ssg74
g538
sg67
(lp549
S':'
asbag60
(g81
g62
NtRp550
(dp551
g65
(dp552
sg74
g538
sg67
(lp553
g60
(g61
g62
NtRp554
(dp555
g65
(dp556
g73
I3
ssg74
g550
sg67
(lp557
S''
asbasbasbag60
(g76
g62
NtRp558
(dp559
g65
(dp560
sg74
g434
sg67
(lp561
g60
(g81
g62
NtRp562
(dp563
g65
(dp564
g85
g86
ssg74
g558
sg67
(lp565
g400
asbag60
(g81
g62
NtRp566
(dp567
g65
(dp568
g92
g93
ssg74
g558
sg67
(lp569
S':'
asbag60
(g81
g62
NtRp570
(dp571
g65
(dp572
sg74
g558
sg67
(lp573
g60
(g61
g62
NtRp574
(dp575
g65
(dp576
g73
I3
ssg74
g570
sg67
(lp577
S''
asbasbasbasbasbasbasbasbasbasbasbag60
(g76
g62
NtRp578
(dp579
g65
(dp580
sg74
g70
sg67
(lp581
g60
(g81
g62
NtRp582
(dp583
g65
(dp584
g85
g86
ssg74
g578
sg67
(lp585
S'env'
p586
asbag60
(g81
g62
NtRp587
(dp588
g65
(dp589
g92
g93
ssg74
g578
sg67
(lp590
S':'
asbag60
(g81
g62
NtRp591
(dp592
g65
(dp593
sg74
g578
sg67
(lp594
g60
(g61
g62
NtRp595
(dp596
g65
(dp597
g73
I5
ssg74
g591
sg67
(lp598
g60
(g69
g62
NtRp599
(dp600
g65
(dp601
g73
I4
ssg74
Nsg67
(lp602
g60
(g76
g62
NtRp603
(dp604
g65
(dp605
sg74
g599
sg67
(lp606
g60
(g81
g62
NtRp607
(dp608
g65
(dp609
g85
g86
ssg74
g603
sg67
(lp610
S'app_folders'
p611
asbag60
(g81
g62
NtRp612
(dp613
g65
(dp614
g92
g93
ssg74
g603
sg67
(lp615
S':'
asbag60
(g81
g62
NtRp616
(dp617
g65
(dp618
sg74
g603
sg67
(lp619
g60
(g61
g62
NtRp620
(dp621
g65
(dp622
g73
I4
ssg74
g616
sg67
(lp623
S"set(['/Users/rayelward/Downloads/web2py/web2py.app/Contents/Resources/applications/init/', '/Users/rayelward/Downloads/web2py/web2py.app/Contents/Resources/applications/admin/'])"
p624
asbasbasbag60
(g76
g62
NtRp625
(dp626
g65
(dp627
sg74
g599
sg67
(lp628
g60
(g81
g62
NtRp629
(dp630
g65
(dp631
g85
g86
ssg74
g625
sg67
(lp632
S'applications_parent'
p633
asbag60
(g81
g62
NtRp634
(dp635
g65
(dp636
g92
g93
ssg74
g625
sg67
(lp637
S':'
asbag60
(g81
g62
NtRp638
(dp639
g65
(dp640
sg74
g625
sg67
(lp641
g60
(g61
g62
NtRp642
(dp643
g65
(dp644
g73
I4
ssg74
g638
sg67
(lp645
S'/Users/rayelward/Downloads/web2py/web2py.app/Contents/Resources'
p646
asbasbasbag60
(g76
g62
NtRp647
(dp648
g65
(dp649
sg74
g599
sg67
(lp650
g60
(g81
g62
NtRp651
(dp652
g65
(dp653
g85
g86
ssg74
g647
sg67
(lp654
S'cmd_args'
p655
asbag60
(g81
g62
NtRp656
(dp657
g65
(dp658
g92
g93
ssg74
g647
sg67
(lp659
S':'
asbag60
(g81
g62
NtRp660
(dp661
g65
(dp662
sg74
g647
sg67
(lp663
g60
(g61
g62
NtRp664
(dp665
g65
(dp666
g73
I4
ssg74
g660
sg67
(lp667
g60
(g69
g62
NtRp668
(dp669
g65
(dp670
g73
I3
ssg74
Nsg67
(lp671
sbasbasbasbag60
(g76
g62
NtRp672
(dp673
g65
(dp674
sg74
g599
sg67
(lp675
g60
(g81
g62
NtRp676
(dp677
g65
(dp678
g85
g86
ssg74
g672
sg67
(lp679
S'cmd_options'
p680
asbag60
(g81
g62
NtRp681
(dp682
g65
(dp683
g92
g93
ssg74
g672
sg67
(lp684
S':'
asbag60
(g81
g62
NtRp685
(dp686
g65
(dp687
sg74
g672
sg67
(lp688
g60
(g61
g62
NtRp689
(dp690
g65
(dp691
g73
I4
ssg74
g685
sg67
(lp692
S"<Values at 0x406d288: {'verbose': False, 'ip': '127.0.0.1', 'shutdown_timeout': 5, 'taskbar': False, 'nocron': False, 'pid_filename': 'httpserver.pid', 'maxthreads': None, 'softcron': False, 'server_name': 'ray-laptop.local', 'bpython': False, 'nogui': False, 'port': 8000, 'extcron': False, 'debuglevel': 30, 'test': None, 'folder': '/Users/rayelward/Downloads/web2py/web2py.app/Contents/Resources', 'config': '', 'import_models': False, 'winservice': '', 'shell': None, 'run': '', 'log_filename': 'httpserver.log', 'args': [''], 'ssl_ca_certificate': None, 'scheduler': None, 'profiler_filename': None, 'ssl_private_key': '', 'password': '<ask>', 'request_queue_size': 5, 'ssl_certificate': '', 'cronjob': False, 'plain': False, 'quiet': False, 'interfaces': None, 'minthreads': None, 'timeout': 10, 'numthreads': None, 'nobanner': False}>"
p693
asbasbasbag60
(g76
g62
NtRp694
(dp695
g65
(dp696
sg74
g599
sg67
(lp697
g60
(g81
g62
NtRp698
(dp699
g65
(dp700
g85
g86
ssg74
g694
sg67
(lp701
S'db_sessions'
p702
asbag60
(g81
g62
NtRp703
(dp704
g65
(dp705
g92
g93
ssg74
g694
sg67
(lp706
S':'
asbag60
(g81
g62
NtRp707
(dp708
g65
(dp709
sg74
g694
sg67
(lp710
g60
(g61
g62
NtRp711
(dp712
g65
(dp713
g73
I4
ssg74
g707
sg67
(lp714
S'set([])'
p715
asbasbasbag60
(g76
g62
NtRp716
(dp717
g65
(dp718
sg74
g599
sg67
(lp719
g60
(g81
g62
NtRp720
(dp721
g65
(dp722
g85
g86
ssg74
g716
sg67
(lp723
S'debugging'
p724
asbag60
(g81
g62
NtRp725
(dp726
g65
(dp727
g92
g93
ssg74
g716
sg67
(lp728
S':'
asbag60
(g81
g62
NtRp729
(dp730
g65
(dp731
sg74
g716
sg67
(lp732
g60
(g61
g62
NtRp733
(dp734
g65
(dp735
g73
I4
ssg74
g729
sg67
(lp736
g103
asbasbasbag60
(g76
g62
NtRp737
(dp738
g65
(dp739
sg74
g599
sg67
(lp740
g60
(g81
g62
NtRp741
(dp742
g65
(dp743
g85
g86
ssg74
g737
sg67
(lp744
S'gluon_parent'
p745
asbag60
(g81
g62
NtRp746
(dp747
g65
(dp748
g92
g93
ssg74
g737
sg67
(lp749
S':'
asbag60
(g81
g62
NtRp750
(dp751
g65
(dp752
sg74
g737
sg67
(lp753
g60
(g61
g62
NtRp754
(dp755
g65
(dp756
g73
I4
ssg74
g750
sg67
(lp757
S'/Users/rayelward/Downloads/web2py/web2py.app/Contents/Resources'
p758
asbasbasbag60
(g76
g62
NtRp759
(dp760
g65
(dp761
sg74
g599
sg67
(lp762
g60
(g81
g62
NtRp763
(dp764
g65
(dp765
g85
g86
ssg74
g759
sg67
(lp766
S'http_accept'
p767
asbag60
(g81
g62
NtRp768
(dp769
g65
(dp770
g92
g93
ssg74
g759
sg67
(lp771
S':'
asbag60
(g81
g62
NtRp772
(dp773
g65
(dp774
sg74
g759
sg67
(lp775
g60
(g61
g62
NtRp776
(dp777
g65
(dp778
g73
I4
ssg74
g772
sg67
(lp779
S'text/html,application/xhtml+xml,application/xml;q=0.9,*/*;q=0.8'
p780
asbasbasbag60
(g76
g62
NtRp781
(dp782
g65
(dp783
sg74
g599
sg67
(lp784
g60
(g81
g62
NtRp785
(dp786
g65
(dp787
g85
g86
ssg74
g781
sg67
(lp788
S'http_accept_charset'
p789
asbag60
(g81
g62
NtRp790
(dp791
g65
(dp792
g92
g93
ssg74
g781
sg67
(lp793
S':'
asbag60
(g81
g62
NtRp794
(dp795
g65
(dp796
sg74
g781
sg67
(lp797
g60
(g61
g62
NtRp798
(dp799
g65
(dp800
g73
I4
ssg74
g794
sg67
(lp801
S'ISO-8859-1,utf-8;q=0.7,*;q=0.3'
p802
asbasbasbag60
(g76
g62
NtRp803
(dp804
g65
(dp805
sg74
g599
sg67
(lp806
g60
(g81
g62
NtRp807
(dp808
g65
(dp809
g85
g86
ssg74
g803
sg67
(lp810
S'http_accept_encoding'
p811
asbag60
(g81
g62
NtRp812
(dp813
g65
(dp814
g92
g93
ssg74
g803
sg67
(lp815
S':'
asbag60
(g81
g62
NtRp816
(dp817
g65
(dp818
sg74
g803
sg67
(lp819
g60
(g61
g62
NtRp820
(dp821
g65
(dp822
g73
I4
ssg74
g816
sg67
(lp823
S'gzip,deflate,sdch'
p824
asbasbasbag60
(g76
g62
NtRp825
(dp826
g65
(dp827
sg74
g599
sg67
(lp828
g60
(g81
g62
NtRp829
(dp830
g65
(dp831
g85
g86
ssg74
g825
sg67
(lp832
S'http_accept_language'
p833
asbag60
(g81
g62
NtRp834
(dp835
g65
(dp836
g92
g93
ssg74
g825
sg67
(lp837
S':'
asbag60
(g81
g62
NtRp838
(dp839
g65
(dp840
sg74
g825
sg67
(lp841
g60
(g61
g62
NtRp842
(dp843
g65
(dp844
g73
I4
ssg74
g838
sg67
(lp845
S'en-US,en;q=0.8'
p846
asbasbasbag60
(g76
g62
NtRp847
(dp848
g65
(dp849
sg74
g599
sg67
(lp850
g60
(g81
g62
NtRp851
(dp852
g65
(dp853
g85
g86
ssg74
g847
sg67
(lp854
S'http_cache_control'
p855
asbag60
(g81
g62
NtRp856
(dp857
g65
(dp858
g92
g93
ssg74
g847
sg67
(lp859
S':'
asbag60
(g81
g62
NtRp860
(dp861
g65
(dp862
sg74
g847
sg67
(lp863
g60
(g61
g62
NtRp864
(dp865
g65
(dp866
g73
I4
ssg74
g860
sg67
(lp867
S'no-cache'
p868
asbasbasbag60
(g76
g62
NtRp869
(dp870
g65
(dp871
sg74
g599
sg67
(lp872
g60
(g81
g62
NtRp873
(dp874
g65
(dp875
g85
g86
ssg74
g869
sg67
(lp876
S'http_connection'
p877
asbag60
(g81
g62
NtRp878
(dp879
g65
(dp880
g92
g93
ssg74
g869
sg67
(lp881
S':'
asbag60
(g81
g62
NtRp882
(dp883
g65
(dp884
sg74
g869
sg67
(lp885
g60
(g61
g62
NtRp886
(dp887
g65
(dp888
g73
I4
ssg74
g882
sg67
(lp889
S'keep-alive'
p890
asbasbasbag60
(g76
g62
NtRp891
(dp892
g65
(dp893
sg74
g599
sg67
(lp894
g60
(g81
g62
NtRp895
(dp896
g65
(dp897
g85
g86
ssg74
g891
sg67
(lp898
S'http_cookie'
p899
asbag60
(g81
g62
NtRp900
(dp901
g65
(dp902
g92
g93
ssg74
g891
sg67
(lp903
S':'
asbag60
(g81
g62
NtRp904
(dp905
g65
(dp906
sg74
g891
sg67
(lp907
g60
(g61
g62
NtRp908
(dp909
g65
(dp910
g73
I4
ssg74
g904
sg67
(lp911
S'session_id_init=127.0.0.1-fc182bcf-69c7-4bb5-8e05-90174987c4cd; __utma=96992031.1731807683.1321373441.1322282995.1323134967.4; __utmb=96992031.5.10.1323134967; __utmc=96992031; __utmz=96992031.1321373441.1.1.utmcsr=(direct)|utmccn=(direct)|utmcmd=(none); session_id_admin=127.0.0.1-0f2f7d42-519c-4770-bb9d-800f170e7e11'
p912
asbasbasbag60
(g76
g62
NtRp913
(dp914
g65
(dp915
sg74
g599
sg67
(lp916
g60
(g81
g62
NtRp917
(dp918
g65
(dp919
g85
g86
ssg74
g913
sg67
(lp920
S'http_host'
p921
asbag60
(g81
g62
NtRp922
(dp923
g65
(dp924
g92
g93
ssg74
g913
sg67
(lp925
S':'
asbag60
(g81
g62
NtRp926
(dp927
g65
(dp928
sg74
g913
sg67
(lp929
g60
(g61
g62
NtRp930
(dp931
g65
(dp932
g73
I4
ssg74
g926
sg67
(lp933
S'127.0.0.1:8000'
p934
asbasbasbag60
(g76
g62
NtRp935
(dp936
g65
(dp937
sg74
g599
sg67
(lp938
g60
(g81
g62
NtRp939
(dp940
g65
(dp941
g85
g86
ssg74
g935
sg67
(lp942
S'http_pragma'
p943
asbag60
(g81
g62
NtRp944
(dp945
g65
(dp946
g92
g93
ssg74
g935
sg67
(lp947
S':'
asbag60
(g81
g62
NtRp948
(dp949
g65
(dp950
sg74
g935
sg67
(lp951
g60
(g61
g62
NtRp952
(dp953
g65
(dp954
g73
I4
ssg74
g948
sg67
(lp955
S'no-cache'
p956
asbasbasbag60
(g76
g62
NtRp957
(dp958
g65
(dp959
sg74
g599
sg67
(lp960
g60
(g81
g62
NtRp961
(dp962
g65
(dp963
g85
g86
ssg74
g957
sg67
(lp964
S'http_user_agent'
p965
asbag60
(g81
g62
NtRp966
(dp967
g65
(dp968
g92
g93
ssg74
g957
sg67
(lp969
S':'
asbag60
(g81
g62
NtRp970
(dp971
g65
(dp972
sg74
g957
sg67
(lp973
g60
(g61
g62
NtRp974
(dp975
g65
(dp976
g73
I4
ssg74
g970
sg67
(lp977
S'Mozilla/5.0 (Macintosh; Intel Mac OS X 10_7_2) AppleWebKit/535.2 (KHTML, like Gecko) Chrome/15.0.874.121 Safari/535.2'
p978
asbasbasbag60
(g76
g62
NtRp979
(dp980
g65
(dp981
sg74
g599
sg67
(lp982
g60
(g81
g62
NtRp983
(dp984
g65
(dp985
g85
g86
ssg74
g979
sg67
(lp986
S'is_jython'
p987
asbag60
(g81
g62
NtRp988
(dp989
g65
(dp990
g92
g93
ssg74
g979
sg67
(lp991
S':'
asbag60
(g81
g62
NtRp992
(dp993
g65
(dp994
sg74
g979
sg67
(lp995
g60
(g61
g62
NtRp996
(dp997
g65
(dp998
g73
I4
ssg74
g992
sg67
(lp999
g103
asbasbasbag60
(g76
g62
NtRp1000
(dp1001
g65
(dp1002
sg74
g599
sg67
(lp1003
g60
(g81
g62
NtRp1004
(dp1005
g65
(dp1006
g85
g86
ssg74
g1000
sg67
(lp1007
S'path_info'
p1008
asbag60
(g81
g62
NtRp1009
(dp1010
g65
(dp1011
g92
g93
ssg74
g1000
sg67
(lp1012
S':'
asbag60
(g81
g62
NtRp1013
(dp1014
g65
(dp1015
sg74
g1000
sg67
(lp1016
g60
(g61
g62
NtRp1017
(dp1018
g65
(dp1019
g73
I4
ssg74
g1013
sg67
(lp1020
S'/init/default/recents'
p1021
asbasbasbag60
(g76
g62
NtRp1022
(dp1023
g65
(dp1024
sg74
g599
sg67
(lp1025
g60
(g81
g62
NtRp1026
(dp1027
g65
(dp1028
g85
g86
ssg74
g1022
sg67
(lp1029
S'query_string'
p1030
asbag60
(g81
g62
NtRp1031
(dp1032
g65
(dp1033
g92
g93
ssg74
g1022
sg67
(lp1034
S':'
asbag60
(g81
g62
NtRp1035
(dp1036
g65
(dp1037
sg74
g1022
sg67
(lp1038
g60
(g61
g62
NtRp1039
(dp1040
g65
(dp1041
g73
I4
ssg74
g1035
sg67
(lp1042
S''
asbasbasbag60
(g76
g62
NtRp1043
(dp1044
g65
(dp1045
sg74
g599
sg67
(lp1046
g60
(g81
g62
NtRp1047
(dp1048
g65
(dp1049
g85
g86
ssg74
g1043
sg67
(lp1050
S'remote_addr'
p1051
asbag60
(g81
g62
NtRp1052
(dp1053
g65
(dp1054
g92
g93
ssg74
g1043
sg67
(lp1055
S':'
asbag60
(g81
g62
NtRp1056
(dp1057
g65
(dp1058
sg74
g1043
sg67
(lp1059
g60
(g61
g62
NtRp1060
(dp1061
g65
(dp1062
g73
I4
ssg74
g1056
sg67
(lp1063
g193
asbasbasbag60
(g76
g62
NtRp1064
(dp1065
g65
(dp1066
sg74
g599
sg67
(lp1067
g60
(g81
g62
NtRp1068
(dp1069
g65
(dp1070
g85
g86
ssg74
g1064
sg67
(lp1071
S'remote_port'
p1072
asbag60
(g81
g62
NtRp1073
(dp1074
g65
(dp1075
g92
g93
ssg74
g1064
sg67
(lp1076
S':'
asbag60
(g81
g62
NtRp1077
(dp1078
g65
(dp1079
sg74
g1064
sg67
(lp1080
g60
(g61
g62
NtRp1081
(dp1082
g65
(dp1083
g73
I4
ssg74
g1077
sg67
(lp1084
S'62205'
p1085
asbasbasbag60
(g76
g62
NtRp1086
(dp1087
g65
(dp1088
sg74
g599
sg67
(lp1089
g60
(g81
g62
NtRp1090
(dp1091
g65
(dp1092
g85
g86
ssg74
g1086
sg67
(lp1093
S'request_method'
p1094
asbag60
(g81
g62
NtRp1095
(dp1096
g65
(dp1097
g92
g93
ssg74
g1086
sg67
(lp1098
S':'
asbag60
(g81
g62
NtRp1099
(dp1100
g65
(dp1101
sg74
g1086
sg67
(lp1102
g60
(g61
g62
NtRp1103
(dp1104
g65
(dp1105
g73
I4
ssg74
g1099
sg67
(lp1106
S'GET'
p1107
asbasbasbag60
(g76
g62
NtRp1108
(dp1109
g65
(dp1110
sg74
g599
sg67
(lp1111
g60
(g81
g62
NtRp1112
(dp1113
g65
(dp1114
g85
g86
ssg74
g1108
sg67
(lp1115
S'script_name'
p1116
asbag60
(g81
g62
NtRp1117
(dp1118
g65
(dp1119
g92
g93
ssg74
g1108
sg67
(lp1120
S':'
asbag60
(g81
g62
NtRp1121
(dp1122
g65
(dp1123
sg74
g1108
sg67
(lp1124
g60
(g61
g62
NtRp1125
(dp1126
g65
(dp1127
g73
I4
ssg74
g1121
sg67
(lp1128
S''
asbasbasbag60
(g76
g62
NtRp1129
(dp1130
g65
(dp1131
sg74
g599
sg67
(lp1132
g60
(g81
g62
NtRp1133
(dp1134
g65
(dp1135
g85
g86
ssg74
g1129
sg67
(lp1136
S'server_name'
p1137
asbag60
(g81
g62
NtRp1138
(dp1139
g65
(dp1140
g92
g93
ssg74
g1129
sg67
(lp1141
S':'
asbag60
(g81
g62
NtRp1142
(dp1143
g65
(dp1144
sg74
g1129
sg67
(lp1145
g60
(g61
g62
NtRp1146
(dp1147
g65
(dp1148
g73
I4
ssg74
g1142
sg67
(lp1149
S'ray-laptop.local'
p1150
asbasbasbag60
(g76
g62
NtRp1151
(dp1152
g65
(dp1153
sg74
g599
sg67
(lp1154
g60
(g81
g62
NtRp1155
(dp1156
g65
(dp1157
g85
g86
ssg74
g1151
sg67
(lp1158
S'server_port'
p1159
asbag60
(g81
g62
NtRp1160
(dp1161
g65
(dp1162
g92
g93
ssg74
g1151
sg67
(lp1163
S':'
asbag60
(g81
g62
NtRp1164
(dp1165
g65
(dp1166
sg74
g1151
sg67
(lp1167
g60
(g61
g62
NtRp1168
(dp1169
g65
(dp1170
g73
I4
ssg74
g1164
sg67
(lp1171
S'8000'
p1172
asbasbasbag60
(g76
g62
NtRp1173
(dp1174
g65
(dp1175
sg74
g599
sg67
(lp1176
g60
(g81
g62
NtRp1177
(dp1178
g65
(dp1179
g85
g86
ssg74
g1173
sg67
(lp1180
S'server_protocol'
p1181
asbag60
(g81
g62
NtRp1182
(dp1183
g65
(dp1184
g92
g93
ssg74
g1173
sg67
(lp1185
S':'
asbag60
(g81
g62
NtRp1186
(dp1187
g65
(dp1188
sg74
g1173
sg67
(lp1189
g60
(g61
g62
NtRp1190
(dp1191
g65
(dp1192
g73
I4
ssg74
g1186
sg67
(lp1193
S'HTTP/1.1'
p1194
asbasbasbag60
(g76
g62
NtRp1195
(dp1196
g65
(dp1197
sg74
g599
sg67
(lp1198
g60
(g81
g62
NtRp1199
(dp1200
g65
(dp1201
g85
g86
ssg74
g1195
sg67
(lp1202
S'server_software'
p1203
asbag60
(g81
g62
NtRp1204
(dp1205
g65
(dp1206
g92
g93
ssg74
g1195
sg67
(lp1207
S':'
asbag60
(g81
g62
NtRp1208
(dp1209
g65
(dp1210
sg74
g1195
sg67
(lp1211
g60
(g61
g62
NtRp1212
(dp1213
g65
(dp1214
g73
I4
ssg74
g1208
sg67
(lp1215
S'Rocket 1.2.4'
p1216
asbasbasbag60
(g76
g62
NtRp1217
(dp1218
g65
(dp1219
sg74
g599
sg67
(lp1220
g60
(g81
g62
NtRp1221
(dp1222
g65
(dp1223
g85
g86
ssg74
g1217
sg67
(lp1224
S'web2py_crontype'
p1225
asbag60
(g81
g62
NtRp1226
(dp1227
g65
(dp1228
g92
g93
ssg74
g1217
sg67
(lp1229
S':'
asbag60
(g81
g62
NtRp1230
(dp1231
g65
(dp1232
sg74
g1217
sg67
(lp1233
g60
(g61
g62
NtRp1234
(dp1235
g65
(dp1236
g73
I4
ssg74
g1230
sg67
(lp1237
S'hard'
p1238
asbasbasbag60
(g76
g62
NtRp1239
(dp1240
g65
(dp1241
sg74
g599
sg67
(lp1242
g60
(g81
g62
NtRp1243
(dp1244
g65
(dp1245
g85
g86
ssg74
g1239
sg67
(lp1246
S'web2py_path'
p1247
asbag60
(g81
g62
NtRp1248
(dp1249
g65
(dp1250
g92
g93
ssg74
g1239
sg67
(lp1251
S':'
asbag60
(g81
g62
NtRp1252
(dp1253
g65
(dp1254
sg74
g1239
sg67
(lp1255
g60
(g61
g62
NtRp1256
(dp1257
g65
(dp1258
g73
I4
ssg74
g1252
sg67
(lp1259
g646
asbasbasbag60
(g76
g62
NtRp1260
(dp1261
g65
(dp1262
sg74
g599
sg67
(lp1263
g60
(g81
g62
NtRp1264
(dp1265
g65
(dp1266
g85
g86
ssg74
g1260
sg67
(lp1267
S'web2py_version'
p1268
asbag60
(g81
g62
NtRp1269
(dp1270
g65
(dp1271
g92
g93
ssg74
g1260
sg67
(lp1272
S':'
asbag60
(g81
g62
NtRp1273
(dp1274
g65
(dp1275
sg74
g1260
sg67
(lp1276
g60
(g61
g62
NtRp1277
(dp1278
g65
(dp1279
g73
I4
ssg74
g1273
sg67
(lp1280
g60
(g69
g62
NtRp1281
(dp1282
g65
(dp1283
g73
I3
ssg74
Nsg67
(lp1284
g60
(g76
g62
NtRp1285
(dp1286
g65
(dp1287
sg74
g1281
sg67
(lp1288
g60
(g81
g62
NtRp1289
(dp1290
g65
(dp1291
sg74
g1285
sg67
(lp1292
g60
(g61
g62
NtRp1293
(dp1294
g65
(dp1295
g73
I3
ssg74
g1289
sg67
(lp1296
S'1'
asbasbasbag60
(g76
g62
NtRp1297
(dp1298
g65
(dp1299
sg74
g1281
sg67
(lp1300
g60
(g81
g62
NtRp1301
(dp1302
g65
(dp1303
sg74
g1297
sg67
(lp1304
g60
(g61
g62
NtRp1305
(dp1306
g65
(dp1307
g73
I3
ssg74
g1301
sg67
(lp1308
S'99'
p1309
asbasbasbag60
(g76
g62
NtRp1310
(dp1311
g65
(dp1312
sg74
g1281
sg67
(lp1313
g60
(g81
g62
NtRp1314
(dp1315
g65
(dp1316
sg74
g1310
sg67
(lp1317
g60
(g61
g62
NtRp1318
(dp1319
g65
(dp1320
g73
I3
ssg74
g1314
sg67
(lp1321
S'2'
asbasbasbag60
(g76
g62
NtRp1322
(dp1323
g65
(dp1324
sg74
g1281
sg67
(lp1325
g60
(g81
g62
NtRp1326
(dp1327
g65
(dp1328
sg74
g1322
sg67
(lp1329
g60
(g61
g62
NtRp1330
(dp1331
g65
(dp1332
g73
I3
ssg74
g1326
sg67
(lp1333
S'datetime.datetime(2011, 9, 26, 6, 55, 33)'
p1334
asbasbasbag60
(g76
g62
NtRp1335
(dp1336
g65
(dp1337
sg74
g1281
sg67
(lp1338
g60
(g81
g62
NtRp1339
(dp1340
g65
(dp1341
sg74
g1335
sg67
(lp1342
g60
(g61
g62
NtRp1343
(dp1344
g65
(dp1345
g73
I3
ssg74
g1339
sg67
(lp1346
S'stable'
p1347
asbasbasbasbasbasbasbag60
(g76
g62
NtRp1348
(dp1349
g65
(dp1350
sg74
g599
sg67
(lp1351
g60
(g81
g62
NtRp1352
(dp1353
g65
(dp1354
g85
g86
ssg74
g1348
sg67
(lp1355
S'wsgi_errors'
p1356
asbag60
(g81
g62
NtRp1357
(dp1358
g65
(dp1359
g92
g93
ssg74
g1348
sg67
(lp1360
S':'
asbag60
(g81
g62
NtRp1361
(dp1362
g65
(dp1363
sg74
g1348
sg67
(lp1364
g60
(g61
g62
NtRp1365
(dp1366
g65
(dp1367
g73
I4
ssg74
g1361
sg67
(lp1368
S"<open file '<stderr>', mode 'w' at 0x750b0>"
p1369
asbasbasbag60
(g76
g62
NtRp1370
(dp1371
g65
(dp1372
sg74
g599
sg67
(lp1373
g60
(g81
g62
NtRp1374
(dp1375
g65
(dp1376
g85
g86
ssg74
g1370
sg67
(lp1377
S'wsgi_file_wrapper'
p1378
asbag60
(g81
g62
NtRp1379
(dp1380
g65
(dp1381
g92
g93
ssg74
g1370
sg67
(lp1382
S':'
asbag60
(g81
g62
NtRp1383
(dp1384
g65
(dp1385
sg74
g1370
sg67
(lp1386
g60
(g61
g62
NtRp1387
(dp1388
g65
(dp1389
g73
I4
ssg74
g1383
sg67
(lp1390
S'<class wsgiref.util.FileWrapper at 0x4033240>'
p1391
asbasbasbag60
(g76
g62
NtRp1392
(dp1393
g65
(dp1394
sg74
g599
sg67
(lp1395
g60
(g81
g62
NtRp1396
(dp1397
g65
(dp1398
g85
g86
ssg74
g1392
sg67
(lp1399
S'wsgi_input'
p1400
asbag60
(g81
g62
NtRp1401
(dp1402
g65
(dp1403
g92
g93
ssg74
g1392
sg67
(lp1404
S':'
asbag60
(g81
g62
NtRp1405
(dp1406
g65
(dp1407
sg74
g1392
sg67
(lp1408
g60
(g61
g62
NtRp1409
(dp1410
g65
(dp1411
g73
I4
ssg74
g1405
sg67
(lp1412
S'<socket._fileobject object at 0x7265430>'
p1413
asbasbasbag60
(g76
g62
NtRp1414
(dp1415
g65
(dp1416
sg74
g599
sg67
(lp1417
g60
(g81
g62
NtRp1418
(dp1419
g65
(dp1420
g85
g86
ssg74
g1414
sg67
(lp1421
S'wsgi_multiprocess'
p1422
asbag60
(g81
g62
NtRp1423
(dp1424
g65
(dp1425
g92
g93
ssg74
g1414
sg67
(lp1426
S':'
asbag60
(g81
g62
NtRp1427
(dp1428
g65
(dp1429
sg74
g1414
sg67
(lp1430
g60
(g61
g62
NtRp1431
(dp1432
g65
(dp1433
g73
I4
ssg74
g1427
sg67
(lp1434
g103
asbasbasbag60
(g76
g62
NtRp1435
(dp1436
g65
(dp1437
sg74
g599
sg67
(lp1438
g60
(g81
g62
NtRp1439
(dp1440
g65
(dp1441
g85
g86
ssg74
g1435
sg67
(lp1442
S'wsgi_multithread'
p1443
asbag60
(g81
g62
NtRp1444
(dp1445
g65
(dp1446
g92
g93
ssg74
g1435
sg67
(lp1447
S':'
asbag60
(g81
g62
NtRp1448
(dp1449
g65
(dp1450
sg74
g1435
sg67
(lp1451
g60
(g61
g62
NtRp1452
(dp1453
g65
(dp1454
g73
I4
ssg74
g1448
sg67
(lp1455
S'True'
p1456
asbasbasbag60
(g76
g62
NtRp1457
(dp1458
g65
(dp1459
sg74
g599
sg67
(lp1460
g60
(g81
g62
NtRp1461
(dp1462
g65
(dp1463
g85
g86
ssg74
g1457
sg67
(lp1464
S'wsgi_run_once'
p1465
asbag60
(g81
g62
NtRp1466
(dp1467
g65
(dp1468
g92
g93
ssg74
g1457
sg67
(lp1469
S':'
asbag60
(g81
g62
NtRp1470
(dp1471
g65
(dp1472
sg74
g1457
sg67
(lp1473
g60
(g61
g62
NtRp1474
(dp1475
g65
(dp1476
g73
I4
ssg74
g1470
sg67
(lp1477
g103
asbasbasbag60
(g76
g62
NtRp1478
(dp1479
g65
(dp1480
sg74
g599
sg67
(lp1481
g60
(g81
g62
NtRp1482
(dp1483
g65
(dp1484
g85
g86
ssg74
g1478
sg67
(lp1485
S'wsgi_url_scheme'
p1486
asbag60
(g81
g62
NtRp1487
(dp1488
g65
(dp1489
g92
g93
ssg74
g1478
sg67
(lp1490
S':'
asbag60
(g81
g62
NtRp1491
(dp1492
g65
(dp1493
sg74
g1478
sg67
(lp1494
g60
(g61
g62
NtRp1495
(dp1496
g65
(dp1497
g73
I4
ssg74
g1491
sg67
(lp1498
S'http'
p1499
asbasbasbag60
(g76
g62
NtRp1500
(dp1501
g65
(dp1502
sg74
g599
sg67
(lp1503
g60
(g81
g62
NtRp1504
(dp1505
g65
(dp1506
g85
g86
ssg74
g1500
sg67
(lp1507
S'wsgi_version'
p1508
asbag60
(g81
g62
NtRp1509
(dp1510
g65
(dp1511
g92
g93
ssg74
g1500
sg67
(lp1512
S':'
asbag60
(g81
g62
NtRp1513
(dp1514
g65
(dp1515
sg74
g1500
sg67
(lp1516
g60
(g61
g62
NtRp1517
(dp1518
g65
(dp1519
g73
I4
ssg74
g1513
sg67
(lp1520
g60
(g69
g62
NtRp1521
(dp1522
g65
(dp1523
g73
I3
ssg74
Nsg67
(lp1524
g60
(g76
g62
NtRp1525
(dp1526
g65
(dp1527
sg74
g1521
sg67
(lp1528
g60
(g81
g62
NtRp1529
(dp1530
g65
(dp1531
sg74
g1525
sg67
(lp1532
g60
(g61
g62
NtRp1533
(dp1534
g65
(dp1535
g73
I3
ssg74
g1529
sg67
(lp1536
S'1'
asbasbasbag60
(g76
g62
NtRp1537
(dp1538
g65
(dp1539
sg74
g1521
sg67
(lp1540
g60
(g81
g62
NtRp1541
(dp1542
g65
(dp1543
sg74
g1537
sg67
(lp1544
g60
(g61
g62
NtRp1545
(dp1546
g65
(dp1547
g73
I3
ssg74
g1541
sg67
(lp1548
S'0'
asbasbasbasbasbasbasbasbasbasbasbag60
(g76
g62
NtRp1549
(dp1550
g65
(dp1551
sg74
g70
sg67
(lp1552
g60
(g81
g62
NtRp1553
(dp1554
g65
(dp1555
g85
g86
ssg74
g1549
sg67
(lp1556
S'extension'
p1557
asbag60
(g81
g62
NtRp1558
(dp1559
g65
(dp1560
g92
g93
ssg74
g1549
sg67
(lp1561
S':'
asbag60
(g81
g62
NtRp1562
(dp1563
g65
(dp1564
sg74
g1549
sg67
(lp1565
g60
(g61
g62
NtRp1566
(dp1567
g65
(dp1568
g73
I5
ssg74
g1562
sg67
(lp1569
S'html'
p1570
asbasbasbag60
(g76
g62
NtRp1571
(dp1572
g65
(dp1573
sg74
g70
sg67
(lp1574
g60
(g81
g62
NtRp1575
(dp1576
g65
(dp1577
g85
g86
ssg74
g1571
sg67
(lp1578
S'folder'
p1579
asbag60
(g81
g62
NtRp1580
(dp1581
g65
(dp1582
g92
g93
ssg74
g1571
sg67
(lp1583
S':'
asbag60
(g81
g62
NtRp1584
(dp1585
g65
(dp1586
sg74
g1571
sg67
(lp1587
g60
(g61
g62
NtRp1588
(dp1589
g65
(dp1590
g73
I5
ssg74
g1584
sg67
(lp1591
S'/Users/rayelward/Downloads/web2py/web2py.app/Contents/Resources/applications/init/'
p1592
asbasbasbag60
(g76
g62
NtRp1593
(dp1594
g65
(dp1595
sg74
g70
sg67
(lp1596
g60
(g81
g62
NtRp1597
(dp1598
g65
(dp1599
g85
g86
ssg74
g1593
sg67
(lp1600
S'function'
p1601
asbag60
(g81
g62
NtRp1602
(dp1603
g65
(dp1604
g92
g93
ssg74
g1593
sg67
(lp1605
S':'
asbag60
(g81
g62
NtRp1606
(dp1607
g65
(dp1608
sg74
g1593
sg67
(lp1609
g60
(g61
g62
NtRp1610
(dp1611
g65
(dp1612
g73
I5
ssg74
g1606
sg67
(lp1613
S'recents'
p1614
asbasbasbag60
(g76
g62
NtRp1615
(dp1616
g65
(dp1617
sg74
g70
sg67
(lp1618
g60
(g81
g62
NtRp1619
(dp1620
g65
(dp1621
g85
g86
ssg74
g1615
sg67
(lp1622
S'get_vars'
p1623
asbag60
(g81
g62
NtRp1624
(dp1625
g65
(dp1626
g92
g93
ssg74
g1615
sg67
(lp1627
S':'
asbag60
(g81
g62
NtRp1628
(dp1629
g65
(dp1630
sg74
g1615
sg67
(lp1631
g60
(g61
g62
NtRp1632
(dp1633
g65
(dp1634
g73
I5
ssg74
g1628
sg67
(lp1635
g60
(g69
g62
NtRp1636
(dp1637
g65
(dp1638
g73
I4
ssg74
Nsg67
(lp1639
sbasbasbasbag60
(g76
g62
NtRp1640
(dp1641
g65
(dp1642
sg74
g70
sg67
(lp1643
g60
(g81
g62
NtRp1644
(dp1645
g65
(dp1646
g85
g86
ssg74
g1640
sg67
(lp1647
S'global_settings'
p1648
asbag60
(g81
g62
NtRp1649
(dp1650
g65
(dp1651
g92
g93
ssg74
g1640
sg67
(lp1652
S':'
asbag60
(g81
g62
NtRp1653
(dp1654
g65
(dp1655
sg74
g1640
sg67
(lp1656
g60
(g61
g62
NtRp1657
(dp1658
g65
(dp1659
g73
I5
ssg74
g1653
sg67
(lp1660
g60
(g69
g62
NtRp1661
(dp1662
g65
(dp1663
g73
I4
ssg74
Nsg67
(lp1664
g60
(g76
g62
NtRp1665
(dp1666
g65
(dp1667
sg74
g1661
sg67
(lp1668
g60
(g81
g62
NtRp1669
(dp1670
g65
(dp1671
g85
g86
ssg74
g1665
sg67
(lp1672
g611
asbag60
(g81
g62
NtRp1673
(dp1674
g65
(dp1675
g92
g93
ssg74
g1665
sg67
(lp1676
S':'
asbag60
(g81
g62
NtRp1677
(dp1678
g65
(dp1679
sg74
g1665
sg67
(lp1680
g60
(g61
g62
NtRp1681
(dp1682
g65
(dp1683
g73
I4
ssg74
g1677
sg67
(lp1684
S"set(['/Users/rayelward/Downloads/web2py/web2py.app/Contents/Resources/applications/init/', '/Users/rayelward/Downloads/web2py/web2py.app/Contents/Resources/applications/admin/'])"
p1685
asbasbasbag60
(g76
g62
NtRp1686
(dp1687
g65
(dp1688
sg74
g1661
sg67
(lp1689
g60
(g81
g62
NtRp1690
(dp1691
g65
(dp1692
g85
g86
ssg74
g1686
sg67
(lp1693
g633
asbag60
(g81
g62
NtRp1694
(dp1695
g65
(dp1696
g92
g93
ssg74
g1686
sg67
(lp1697
S':'
asbag60
(g81
g62
NtRp1698
(dp1699
g65
(dp1700
sg74
g1686
sg67
(lp1701
g60
(g61
g62
NtRp1702
(dp1703
g65
(dp1704
g73
I4
ssg74
g1698
sg67
(lp1705
g646
asbasbasbag60
(g76
g62
NtRp1706
(dp1707
g65
(dp1708
sg74
g1661
sg67
(lp1709
g60
(g81
g62
NtRp1710
(dp1711
g65
(dp1712
g85
g86
ssg74
g1706
sg67
(lp1713
g655
asbag60
(g81
g62
NtRp1714
(dp1715
g65
(dp1716
g92
g93
ssg74
g1706
sg67
(lp1717
S':'
asbag60
(g81
g62
NtRp1718
(dp1719
g65
(dp1720
sg74
g1706
sg67
(lp1721
g60
(g61
g62
NtRp1722
(dp1723
g65
(dp1724
g73
I4
ssg74
g1718
sg67
(lp1725
g60
(g69
g62
NtRp1726
(dp1727
g65
(dp1728
g73
I3
ssg74
Nsg67
(lp1729
sbasbasbasbag60
(g76
g62
NtRp1730
(dp1731
g65
(dp1732
sg74
g1661
sg67
(lp1733
g60
(g81
g62
NtRp1734
(dp1735
g65
(dp1736
g85
g86
ssg74
g1730
sg67
(lp1737
g680
asbag60
(g81
g62
NtRp1738
(dp1739
g65
(dp1740
g92
g93
ssg74
g1730
sg67
(lp1741
S':'
asbag60
(g81
g62
NtRp1742
(dp1743
g65
(dp1744
sg74
g1730
sg67
(lp1745
g60
(g61
g62
NtRp1746
(dp1747
g65
(dp1748
g73
I4
ssg74
g1742
sg67
(lp1749
S"<Values at 0x406d288: {'verbose': False, 'ip': '127.0.0.1', 'shutdown_timeout': 5, 'taskbar': False, 'nocron': False, 'pid_filename': 'httpserver.pid', 'maxthreads': None, 'softcron': False, 'server_name': 'ray-laptop.local', 'bpython': False, 'nogui': False, 'port': 8000, 'extcron': False, 'debuglevel': 30, 'test': None, 'folder': '/Users/rayelward/Downloads/web2py/web2py.app/Contents/Resources', 'config': '', 'import_models': False, 'winservice': '', 'shell': None, 'run': '', 'log_filename': 'httpserver.log', 'args': [''], 'ssl_ca_certificate': None, 'scheduler': None, 'profiler_filename': None, 'ssl_private_key': '', 'password': '<ask>', 'request_queue_size': 5, 'ssl_certificate': '', 'cronjob': False, 'plain': False, 'quiet': False, 'interfaces': None, 'minthreads': None, 'timeout': 10, 'numthreads': None, 'nobanner': False}>"
p1750
asbasbasbag60
(g76
g62
NtRp1751
(dp1752
g65
(dp1753
sg74
g1661
sg67
(lp1754
g60
(g81
g62
NtRp1755
(dp1756
g65
(dp1757
g85
g86
ssg74
g1751
sg67
(lp1758
g702
asbag60
(g81
g62
NtRp1759
(dp1760
g65
(dp1761
g92
g93
ssg74
g1751
sg67
(lp1762
S':'
asbag60
(g81
g62
NtRp1763
(dp1764
g65
(dp1765
sg74
g1751
sg67
(lp1766
g60
(g61
g62
NtRp1767
(dp1768
g65
(dp1769
g73
I4
ssg74
g1763
sg67
(lp1770
S'set([])'
p1771
asbasbasbag60
(g76
g62
NtRp1772
(dp1773
g65
(dp1774
sg74
g1661
sg67
(lp1775
g60
(g81
g62
NtRp1776
(dp1777
g65
(dp1778
g85
g86
ssg74
g1772
sg67
(lp1779
g724
asbag60
(g81
g62
NtRp1780
(dp1781
g65
(dp1782
g92
g93
ssg74
g1772
sg67
(lp1783
S':'
asbag60
(g81
g62
NtRp1784
(dp1785
g65
(dp1786
sg74
g1772
sg67
(lp1787
g60
(g61
g62
NtRp1788
(dp1789
g65
(dp1790
g73
I4
ssg74
g1784
sg67
(lp1791
g103
asbasbasbag60
(g76
g62
NtRp1792
(dp1793
g65
(dp1794
sg74
g1661
sg67
(lp1795
g60
(g81
g62
NtRp1796
(dp1797
g65
(dp1798
g85
g86
ssg74
g1792
sg67
(lp1799
g745
asbag60
(g81
g62
NtRp1800
(dp1801
g65
(dp1802
g92
g93
ssg74
g1792
sg67
(lp1803
S':'
asbag60
(g81
g62
NtRp1804
(dp1805
g65
(dp1806
sg74
g1792
sg67
(lp1807
g60
(g61
g62
NtRp1808
(dp1809
g65
(dp1810
g73
I4
ssg74
g1804
sg67
(lp1811
g758
asbasbasbag60
(g76
g62
NtRp1812
(dp1813
g65
(dp1814
sg74
g1661
sg67
(lp1815
g60
(g81
g62
NtRp1816
(dp1817
g65
(dp1818
g85
g86
ssg74
g1812
sg67
(lp1819
g987
asbag60
(g81
g62
NtRp1820
(dp1821
g65
(dp1822
g92
g93
ssg74
g1812
sg67
(lp1823
S':'
asbag60
(g81
g62
NtRp1824
(dp1825
g65
(dp1826
sg74
g1812
sg67
(lp1827
g60
(g61
g62
NtRp1828
(dp1829
g65
(dp1830
g73
I4
ssg74
g1824
sg67
(lp1831
g103
asbasbasbag60
(g76
g62
NtRp1832
(dp1833
g65
(dp1834
sg74
g1661
sg67
(lp1835
g60
(g81
g62
NtRp1836
(dp1837
g65
(dp1838
g85
g86
ssg74
g1832
sg67
(lp1839
g1225
asbag60
(g81
g62
NtRp1840
(dp1841
g65
(dp1842
g92
g93
ssg74
g1832
sg67
(lp1843
S':'
asbag60
(g81
g62
NtRp1844
(dp1845
g65
(dp1846
sg74
g1832
sg67
(lp1847
g60
(g61
g62
NtRp1848
(dp1849
g65
(dp1850
g73
I4
ssg74
g1844
sg67
(lp1851
g1238
asbasbasbag60
(g76
g62
NtRp1852
(dp1853
g65
(dp1854
sg74
g1661
sg67
(lp1855
g60
(g81
g62
NtRp1856
(dp1857
g65
(dp1858
g85
g86
ssg74
g1852
sg67
(lp1859
g1268
asbag60
(g81
g62
NtRp1860
(dp1861
g65
(dp1862
g92
g93
ssg74
g1852
sg67
(lp1863
S':'
asbag60
(g81
g62
NtRp1864
(dp1865
g65
(dp1866
sg74
g1852
sg67
(lp1867
g60
(g61
g62
NtRp1868
(dp1869
g65
(dp1870
g73
I4
ssg74
g1864
sg67
(lp1871
g60
(g69
g62
NtRp1872
(dp1873
g65
(dp1874
g73
I3
ssg74
Nsg67
(lp1875
g60
(g76
g62
NtRp1876
(dp1877
g65
(dp1878
sg74
g1872
sg67
(lp1879
g60
(g81
g62
NtRp1880
(dp1881
g65
(dp1882
sg74
g1876
sg67
(lp1883
g60
(g61
g62
NtRp1884
(dp1885
g65
(dp1886
g73
I3
ssg74
g1880
sg67
(lp1887
S'1'
asbasbasbag60
(g76
g62
NtRp1888
(dp1889
g65
(dp1890
sg74
g1872
sg67
(lp1891
g60
(g81
g62
NtRp1892
(dp1893
g65
(dp1894
sg74
g1888
sg67
(lp1895
g60
(g61
g62
NtRp1896
(dp1897
g65
(dp1898
g73
I3
ssg74
g1892
sg67
(lp1899
S'99'
p1900
asbasbasbag60
(g76
g62
NtRp1901
(dp1902
g65
(dp1903
sg74
g1872
sg67
(lp1904
g60
(g81
g62
NtRp1905
(dp1906
g65
(dp1907
sg74
g1901
sg67
(lp1908
g60
(g61
g62
NtRp1909
(dp1910
g65
(dp1911
g73
I3
ssg74
g1905
sg67
(lp1912
S'2'
asbasbasbag60
(g76
g62
NtRp1913
(dp1914
g65
(dp1915
sg74
g1872
sg67
(lp1916
g60
(g81
g62
NtRp1917
(dp1918
g65
(dp1919
sg74
g1913
sg67
(lp1920
g60
(g61
g62
NtRp1921
(dp1922
g65
(dp1923
g73
I3
ssg74
g1917
sg67
(lp1924
S'datetime.datetime(2011, 9, 26, 6, 55, 33)'
p1925
asbasbasbag60
(g76
g62
NtRp1926
(dp1927
g65
(dp1928
sg74
g1872
sg67
(lp1929
g60
(g81
g62
NtRp1930
(dp1931
g65
(dp1932
sg74
g1926
sg67
(lp1933
g60
(g61
g62
NtRp1934
(dp1935
g65
(dp1936
g73
I3
ssg74
g1930
sg67
(lp1937
g1347
asbasbasbasbasbasbasbasbasbasbasbag60
(g76
g62
NtRp1938
(dp1939
g65
(dp1940
sg74
g70
sg67
(lp1941
g60
(g81
g62
NtRp1942
(dp1943
g65
(dp1944
g85
g86
ssg74
g1938
sg67
(lp1945
S'is_https'
p1946
asbag60
(g81
g62
NtRp1947
(dp1948
g65
(dp1949
g92
g93
ssg74
g1938
sg67
(lp1950
S':'
asbag60
(g81
g62
NtRp1951
(dp1952
g65
(dp1953
sg74
g1938
sg67
(lp1954
g60
(g61
g62
NtRp1955
(dp1956
g65
(dp1957
g73
I5
ssg74
g1951
sg67
(lp1958
g103
asbasbasbag60
(g76
g62
NtRp1959
(dp1960
g65
(dp1961
sg74
g70
sg67
(lp1962
g60
(g81
g62
NtRp1963
(dp1964
g65
(dp1965
g85
g86
ssg74
g1959
sg67
(lp1966
S'is_local'
p1967
asbag60
(g81
g62
NtRp1968
(dp1969
g65
(dp1970
g92
g93
ssg74
g1959
sg67
(lp1971
S':'
asbag60
(g81
g62
NtRp1972
(dp1973
g65
(dp1974
sg74
g1959
sg67
(lp1975
g60
(g61
g62
NtRp1976
(dp1977
g65
(dp1978
g73
I5
ssg74
g1972
sg67
(lp1979
g1456
asbasbasbag60
(g76
g62
NtRp1980
(dp1981
g65
(dp1982
sg74
g70
sg67
(lp1983
g60
(g81
g62
NtRp1984
(dp1985
g65
(dp1986
g85
g86
ssg74
g1980
sg67
(lp1987
S'is_restful'
p1988
asbag60
(g81
g62
NtRp1989
(dp1990
g65
(dp1991
g92
g93
ssg74
g1980
sg67
(lp1992
S':'
asbag60
(g81
g62
NtRp1993
(dp1994
g65
(dp1995
sg74
g1980
sg67
(lp1996
g60
(g61
g62
NtRp1997
(dp1998
g65
(dp1999
g73
I5
ssg74
g1993
sg67
(lp2000
g103
asbasbasbag60
(g76
g62
NtRp2001
(dp2002
g65
(dp2003
sg74
g70
sg67
(lp2004
g60
(g81
g62
NtRp2005
(dp2006
g65
(dp2007
g85
g86
ssg74
g2001
sg67
(lp2008
S'now'
p2009
asbag60
(g81
g62
NtRp2010
(dp2011
g65
(dp2012
g92
g93
ssg74
g2001
sg67
(lp2013
S':'
asbag60
(g81
g62
NtRp2014
(dp2015
g65
(dp2016
sg74
g2001
sg67
(lp2017
g60
(g61
g62
NtRp2018
(dp2019
g65
(dp2020
g73
I5
ssg74
g2014
sg67
(lp2021
S'datetime.datetime(2011, 12, 5, 19, 45, 12, 164854)'
p2022
asbasbasbag60
(g76
g62
NtRp2023
(dp2024
g65
(dp2025
sg74
g70
sg67
(lp2026
g60
(g81
g62
NtRp2027
(dp2028
g65
(dp2029
g85
g86
ssg74
g2023
sg67
(lp2030
S'post_vars'
p2031
asbag60
(g81
g62
NtRp2032
(dp2033
g65
(dp2034
g92
g93
ssg74
g2023
sg67
(lp2035
S':'
asbag60
(g81
g62
NtRp2036
(dp2037
g65
(dp2038
sg74
g2023
sg67
(lp2039
g60
(g61
g62
NtRp2040
(dp2041
g65
(dp2042
g73
I5
ssg74
g2036
sg67
(lp2043
g60
(g69
g62
NtRp2044
(dp2045
g65
(dp2046
g73
I4
ssg74
Nsg67
(lp2047
sbasbasbasbag60
(g76
g62
NtRp2048
(dp2049
g65
(dp2050
sg74
g70
sg67
(lp2051
g60
(g81
g62
NtRp2052
(dp2053
g65
(dp2054
g85
g86
ssg74
g2048
sg67
(lp2055
S'url'
p2056
asbag60
(g81
g62
NtRp2057
(dp2058
g65
(dp2059
g92
g93
ssg74
g2048
sg67
(lp2060
S':'
asbag60
(g81
g62
NtRp2061
(dp2062
g65
(dp2063
sg74
g2048
sg67
(lp2064
g60
(g61
g62
NtRp2065
(dp2066
g65
(dp2067
g73
I5
ssg74
g2061
sg67
(lp2068
S'/init/default/recents'
p2069
asbasbasbag60
(g76
g62
NtRp2070
(dp2071
g65
(dp2072
sg74
g70
sg67
(lp2073
g60
(g81
g62
NtRp2074
(dp2075
g65
(dp2076
g85
g86
ssg74
g2070
sg67
(lp2077
S'utcnow'
p2078
asbag60
(g81
g62
NtRp2079
(dp2080
g65
(dp2081
g92
g93
ssg74
g2070
sg67
(lp2082
S':'
asbag60
(g81
g62
NtRp2083
(dp2084
g65
(dp2085
sg74
g2070
sg67
(lp2086
g60
(g61
g62
NtRp2087
(dp2088
g65
(dp2089
g73
I5
ssg74
g2083
sg67
(lp2090
S'datetime.datetime(2011, 12, 6, 1, 45, 12, 164866)'
p2091
asbasbasbag60
(g76
g62
NtRp2092
(dp2093
g65
(dp2094
sg74
g70
sg67
(lp2095
g60
(g81
g62
NtRp2096
(dp2097
g65
(dp2098
g85
g86
ssg74
g2092
sg67
(lp2099
S'uuid'
p2100
asbag60
(g81
g62
NtRp2101
(dp2102
g65
(dp2103
g92
g93
ssg74
g2092
sg67
(lp2104
S':'
asbag60
(g81
g62
NtRp2105
(dp2106
g65
(dp2107
sg74
g2092
sg67
(lp2108
g60
(g61
g62
NtRp2109
(dp2110
g65
(dp2111
g73
I5
ssg74
g2105
sg67
(lp2112
S'init/127.0.0.1.2011-12-05.19-45-12.afee15e9-15d2-49b5-a130-710b3e898e15'
p2113
asbasbasbag60
(g76
g62
NtRp2114
(dp2115
g65
(dp2116
sg74
g70
sg67
(lp2117
g60
(g81
g62
NtRp2118
(dp2119
g65
(dp2120
g85
g86
ssg74
g2114
sg67
(lp2121
S'vars'
p2122
asbag60
(g81
g62
NtRp2123
(dp2124
g65
(dp2125
g92
g93
ssg74
g2114
sg67
(lp2126
S':'
asbag60
(g81
g62
NtRp2127
(dp2128
g65
(dp2129
sg74
g2114
sg67
(lp2130
g60
(g61
g62
NtRp2131
(dp2132
g65
(dp2133
g73
I5
ssg74
g2127
sg67
(lp2134
g60
(g69
g62
NtRp2135
(dp2136
g65
(dp2137
g73
I4
ssg74
Nsg67
(lp2138
sbasbasbasbag60
(g76
g62
NtRp2139
(dp2140
g65
(dp2141
sg74
g70
sg67
(lp2142
g60
(g81
g62
NtRp2143
(dp2144
g65
(dp2145
g85
g86
ssg74
g2139
sg67
(lp2146
S'wsgi'
p2147
asbag60
(g81
g62
NtRp2148
(dp2149
g65
(dp2150
g92
g93
ssg74
g2139
sg67
(lp2151
S':'
asbag60
(g81
g62
NtRp2152
(dp2153
g65
(dp2154
sg74
g2139
sg67
(lp2155
g60
(g61
g62
NtRp2156
(dp2157
g65
(dp2158
g73
I5
ssg74
g2152
sg67
(lp2159
g60
(g69
g62
NtRp2160
(dp2161
g65
(dp2162
g73
I4
ssg74
Nsg67
(lp2163
g60
(g76
g62
NtRp2164
(dp2165
g65
(dp2166
sg74
g2160
sg67
(lp2167
g60
(g81
g62
NtRp2168
(dp2169
g65
(dp2170
g85
g86
ssg74
g2164
sg67
(lp2171
S'environ'
p2172
asbag60
(g81
g62
NtRp2173
(dp2174
g65
(dp2175
g92
g93
ssg74
g2164
sg67
(lp2176
S':'
asbag60
(g81
g62
NtRp2177
(dp2178
g65
(dp2179
sg74
g2164
sg67
(lp2180
g60
(g61
g62
NtRp2181
(dp2182
g65
(dp2183
g73
I4
ssg74
g2177
sg67
(lp2184
g60
(g69
g62
NtRp2185
(dp2186
g65
(dp2187
g73
I3
ssg74
Nsg67
(lp2188
g60
(g76
g62
NtRp2189
(dp2190
g65
(dp2191
sg74
g2185
sg67
(lp2192
g60
(g81
g62
NtRp2193
(dp2194
g65
(dp2195
g85
g86
ssg74
g2189
sg67
(lp2196
S'HTTP_ACCEPT'
p2197
asbag60
(g81
g62
NtRp2198
(dp2199
g65
(dp2200
g92
g93
ssg74
g2189
sg67
(lp2201
S':'
asbag60
(g81
g62
NtRp2202
(dp2203
g65
(dp2204
sg74
g2189
sg67
(lp2205
g60
(g61
g62
NtRp2206
(dp2207
g65
(dp2208
g73
I3
ssg74
g2202
sg67
(lp2209
g780
asbasbasbag60
(g76
g62
NtRp2210
(dp2211
g65
(dp2212
sg74
g2185
sg67
(lp2213
g60
(g81
g62
NtRp2214
(dp2215
g65
(dp2216
g85
g86
ssg74
g2210
sg67
(lp2217
S'HTTP_ACCEPT_CHARSET'
p2218
asbag60
(g81
g62
NtRp2219
(dp2220
g65
(dp2221
g92
g93
ssg74
g2210
sg67
(lp2222
S':'
asbag60
(g81
g62
NtRp2223
(dp2224
g65
(dp2225
sg74
g2210
sg67
(lp2226
g60
(g61
g62
NtRp2227
(dp2228
g65
(dp2229
g73
I3
ssg74
g2223
sg67
(lp2230
g802
asbasbasbag60
(g76
g62
NtRp2231
(dp2232
g65
(dp2233
sg74
g2185
sg67
(lp2234
g60
(g81
g62
NtRp2235
(dp2236
g65
(dp2237
g85
g86
ssg74
g2231
sg67
(lp2238
S'HTTP_ACCEPT_ENCODING'
p2239
asbag60
(g81
g62
NtRp2240
(dp2241
g65
(dp2242
g92
g93
ssg74
g2231
sg67
(lp2243
S':'
asbag60
(g81
g62
NtRp2244
(dp2245
g65
(dp2246
sg74
g2231
sg67
(lp2247
g60
(g61
g62
NtRp2248
(dp2249
g65
(dp2250
g73
I3
ssg74
g2244
sg67
(lp2251
g824
asbasbasbag60
(g76
g62
NtRp2252
(dp2253
g65
(dp2254
sg74
g2185
sg67
(lp2255
g60
(g81
g62
NtRp2256
(dp2257
g65
(dp2258
g85
g86
ssg74
g2252
sg67
(lp2259
S'HTTP_ACCEPT_LANGUAGE'
p2260
asbag60
(g81
g62
NtRp2261
(dp2262
g65
(dp2263
g92
g93
ssg74
g2252
sg67
(lp2264
S':'
asbag60
(g81
g62
NtRp2265
(dp2266
g65
(dp2267
sg74
g2252
sg67
(lp2268
g60
(g61
g62
NtRp2269
(dp2270
g65
(dp2271
g73
I3
ssg74
g2265
sg67
(lp2272
g846
asbasbasbag60
(g76
g62
NtRp2273
(dp2274
g65
(dp2275
sg74
g2185
sg67
(lp2276
g60
(g81
g62
NtRp2277
(dp2278
g65
(dp2279
g85
g86
ssg74
g2273
sg67
(lp2280
S'HTTP_CACHE_CONTROL'
p2281
asbag60
(g81
g62
NtRp2282
(dp2283
g65
(dp2284
g92
g93
ssg74
g2273
sg67
(lp2285
S':'
asbag60
(g81
g62
NtRp2286
(dp2287
g65
(dp2288
sg74
g2273
sg67
(lp2289
g60
(g61
g62
NtRp2290
(dp2291
g65
(dp2292
g73
I3
ssg74
g2286
sg67
(lp2293
g868
asbasbasbag60
(g76
g62
NtRp2294
(dp2295
g65
(dp2296
sg74
g2185
sg67
(lp2297
g60
(g81
g62
NtRp2298
(dp2299
g65
(dp2300
g85
g86
ssg74
g2294
sg67
(lp2301
S'HTTP_CONNECTION'
p2302
asbag60
(g81
g62
NtRp2303
(dp2304
g65
(dp2305
g92
g93
ssg74
g2294
sg67
(lp2306
S':'
asbag60
(g81
g62
NtRp2307
(dp2308
g65
(dp2309
sg74
g2294
sg67
(lp2310
g60
(g61
g62
NtRp2311
(dp2312
g65
(dp2313
g73
I3
ssg74
g2307
sg67
(lp2314
g890
asbasbasbag60
(g76
g62
NtRp2315
(dp2316
g65
(dp2317
sg74
g2185
sg67
(lp2318
g60
(g81
g62
NtRp2319
(dp2320
g65
(dp2321
g85
g86
ssg74
g2315
sg67
(lp2322
S'HTTP_COOKIE'
p2323
asbag60
(g81
g62
NtRp2324
(dp2325
g65
(dp2326
g92
g93
ssg74
g2315
sg67
(lp2327
S':'
asbag60
(g81
g62
NtRp2328
(dp2329
g65
(dp2330
sg74
g2315
sg67
(lp2331
g60
(g61
g62
NtRp2332
(dp2333
g65
(dp2334
g73
I3
ssg74
g2328
sg67
(lp2335
g912
asbasbasbag60
(g76
g62
NtRp2336
(dp2337
g65
(dp2338
sg74
g2185
sg67
(lp2339
g60
(g81
g62
NtRp2340
(dp2341
g65
(dp2342
g85
g86
ssg74
g2336
sg67
(lp2343
S'HTTP_HOST'
p2344
asbag60
(g81
g62
NtRp2345
(dp2346
g65
(dp2347
g92
g93
ssg74
g2336
sg67
(lp2348
S':'
asbag60
(g81
g62
NtRp2349
(dp2350
g65
(dp2351
sg74
g2336
sg67
(lp2352
g60
(g61
g62
NtRp2353
(dp2354
g65
(dp2355
g73
I3
ssg74
g2349
sg67
(lp2356
g934
asbasbasbag60
(g76
g62
NtRp2357
(dp2358
g65
(dp2359
sg74
g2185
sg67
(lp2360
g60
(g81
g62
NtRp2361
(dp2362
g65
(dp2363
g85
g86
ssg74
g2357
sg67
(lp2364
S'HTTP_PRAGMA'
p2365
asbag60
(g81
g62
NtRp2366
(dp2367
g65
(dp2368
g92
g93
ssg74
g2357
sg67
(lp2369
S':'
asbag60
(g81
g62
NtRp2370
(dp2371
g65
(dp2372
sg74
g2357
sg67
(lp2373
g60
(g61
g62
NtRp2374
(dp2375
g65
(dp2376
g73
I3
ssg74
g2370
sg67
(lp2377
g956
asbasbasbag60
(g76
g62
NtRp2378
(dp2379
g65
(dp2380
sg74
g2185
sg67
(lp2381
g60
(g81
g62
NtRp2382
(dp2383
g65
(dp2384
g85
g86
ssg74
g2378
sg67
(lp2385
S'HTTP_USER_AGENT'
p2386
asbag60
(g81
g62
NtRp2387
(dp2388
g65
(dp2389
g92
g93
ssg74
g2378
sg67
(lp2390
S':'
asbag60
(g81
g62
NtRp2391
(dp2392
g65
(dp2393
sg74
g2378
sg67
(lp2394
g60
(g61
g62
NtRp2395
(dp2396
g65
(dp2397
g73
I3
ssg74
g2391
sg67
(lp2398
g978
asbasbasbag60
(g76
g62
NtRp2399
(dp2400
g65
(dp2401
sg74
g2185
sg67
(lp2402
g60
(g81
g62
NtRp2403
(dp2404
g65
(dp2405
g85
g86
ssg74
g2399
sg67
(lp2406
S'PATH_INFO'
p2407
asbag60
(g81
g62
NtRp2408
(dp2409
g65
(dp2410
g92
g93
ssg74
g2399
sg67
(lp2411
S':'
asbag60
(g81
g62
NtRp2412
(dp2413
g65
(dp2414
sg74
g2399
sg67
(lp2415
g60
(g61
g62
NtRp2416
(dp2417
g65
(dp2418
g73
I3
ssg74
g2412
sg67
(lp2419
g1021
asbasbasbag60
(g76
g62
NtRp2420
(dp2421
g65
(dp2422
sg74
g2185
sg67
(lp2423
g60
(g81
g62
NtRp2424
(dp2425
g65
(dp2426
g85
g86
ssg74
g2420
sg67
(lp2427
S'QUERY_STRING'
p2428
asbag60
(g81
g62
NtRp2429
(dp2430
g65
(dp2431
g92
g93
ssg74
g2420
sg67
(lp2432
S':'
asbag60
(g81
g62
NtRp2433
(dp2434
g65
(dp2435
sg74
g2420
sg67
(lp2436
g60
(g61
g62
NtRp2437
(dp2438
g65
(dp2439
g73
I3
ssg74
g2433
sg67
(lp2440
S''
asbasbasbag60
(g76
g62
NtRp2441
(dp2442
g65
(dp2443
sg74
g2185
sg67
(lp2444
g60
(g81
g62
NtRp2445
(dp2446
g65
(dp2447
g85
g86
ssg74
g2441
sg67
(lp2448
S'REMOTE_ADDR'
p2449
asbag60
(g81
g62
NtRp2450
(dp2451
g65
(dp2452
g92
g93
ssg74
g2441
sg67
(lp2453
S':'
asbag60
(g81
g62
NtRp2454
(dp2455
g65
(dp2456
sg74
g2441
sg67
(lp2457
g60
(g61
g62
NtRp2458
(dp2459
g65
(dp2460
g73
I3
ssg74
g2454
sg67
(lp2461
g193
asbasbasbag60
(g76
g62
NtRp2462
(dp2463
g65
(dp2464
sg74
g2185
sg67
(lp2465
g60
(g81
g62
NtRp2466
(dp2467
g65
(dp2468
g85
g86
ssg74
g2462
sg67
(lp2469
S'REMOTE_PORT'
p2470
asbag60
(g81
g62
NtRp2471
(dp2472
g65
(dp2473
g92
g93
ssg74
g2462
sg67
(lp2474
S':'
asbag60
(g81
g62
NtRp2475
(dp2476
g65
(dp2477
sg74
g2462
sg67
(lp2478
g60
(g61
g62
NtRp2479
(dp2480
g65
(dp2481
g73
I3
ssg74
g2475
sg67
(lp2482
g1085
asbasbasbag60
(g76
g62
NtRp2483
(dp2484
g65
(dp2485
sg74
g2185
sg67
(lp2486
g60
(g81
g62
NtRp2487
(dp2488
g65
(dp2489
g85
g86
ssg74
g2483
sg67
(lp2490
S'REQUEST_METHOD'
p2491
asbag60
(g81
g62
NtRp2492
(dp2493
g65
(dp2494
g92
g93
ssg74
g2483
sg67
(lp2495
S':'
asbag60
(g81
g62
NtRp2496
(dp2497
g65
(dp2498
sg74
g2483
sg67
(lp2499
g60
(g61
g62
NtRp2500
(dp2501
g65
(dp2502
g73
I3
ssg74
g2496
sg67
(lp2503
g1107
asbasbasbag60
(g76
g62
NtRp2504
(dp2505
g65
(dp2506
sg74
g2185
sg67
(lp2507
g60
(g81
g62
NtRp2508
(dp2509
g65
(dp2510
g85
g86
ssg74
g2504
sg67
(lp2511
S'SCRIPT_NAME'
p2512
asbag60
(g81
g62
NtRp2513
(dp2514
g65
(dp2515
g92
g93
ssg74
g2504
sg67
(lp2516
S':'
asbag60
(g81
g62
NtRp2517
(dp2518
g65
(dp2519
sg74
g2504
sg67
(lp2520
g60
(g61
g62
NtRp2521
(dp2522
g65
(dp2523
g73
I3
ssg74
g2517
sg67
(lp2524
S''
asbasbasbag60
(g76
g62
NtRp2525
(dp2526
g65
(dp2527
sg74
g2185
sg67
(lp2528
g60
(g81
g62
NtRp2529
(dp2530
g65
(dp2531
g85
g86
ssg74
g2525
sg67
(lp2532
S'SERVER_NAME'
p2533
asbag60
(g81
g62
NtRp2534
(dp2535
g65
(dp2536
g92
g93
ssg74
g2525
sg67
(lp2537
S':'
asbag60
(g81
g62
NtRp2538
(dp2539
g65
(dp2540
sg74
g2525
sg67
(lp2541
g60
(g61
g62
NtRp2542
(dp2543
g65
(dp2544
g73
I3
ssg74
g2538
sg67
(lp2545
g1150
asbasbasbag60
(g76
g62
NtRp2546
(dp2547
g65
(dp2548
sg74
g2185
sg67
(lp2549
g60
(g81
g62
NtRp2550
(dp2551
g65
(dp2552
g85
g86
ssg74
g2546
sg67
(lp2553
S'SERVER_PORT'
p2554
asbag60
(g81
g62
NtRp2555
(dp2556
g65
(dp2557
g92
g93
ssg74
g2546
sg67
(lp2558
S':'
asbag60
(g81
g62
NtRp2559
(dp2560
g65
(dp2561
sg74
g2546
sg67
(lp2562
g60
(g61
g62
NtRp2563
(dp2564
g65
(dp2565
g73
I3
ssg74
g2559
sg67
(lp2566
g1172
asbasbasbag60
(g76
g62
NtRp2567
(dp2568
g65
(dp2569
sg74
g2185
sg67
(lp2570
g60
(g81
g62
NtRp2571
(dp2572
g65
(dp2573
g85
g86
ssg74
g2567
sg67
(lp2574
S'SERVER_PROTOCOL'
p2575
asbag60
(g81
g62
NtRp2576
(dp2577
g65
(dp2578
g92
g93
ssg74
g2567
sg67
(lp2579
S':'
asbag60
(g81
g62
NtRp2580
(dp2581
g65
(dp2582
sg74
g2567
sg67
(lp2583
g60
(g61
g62
NtRp2584
(dp2585
g65
(dp2586
g73
I3
ssg74
g2580
sg67
(lp2587
g1194
asbasbasbag60
(g76
g62
NtRp2588
(dp2589
g65
(dp2590
sg74
g2185
sg67
(lp2591
g60
(g81
g62
NtRp2592
(dp2593
g65
(dp2594
g85
g86
ssg74
g2588
sg67
(lp2595
S'SERVER_SOFTWARE'
p2596
asbag60
(g81
g62
NtRp2597
(dp2598
g65
(dp2599
g92
g93
ssg74
g2588
sg67
(lp2600
S':'
asbag60
(g81
g62
NtRp2601
(dp2602
g65
(dp2603
sg74
g2588
sg67
(lp2604
g60
(g61
g62
NtRp2605
(dp2606
g65
(dp2607
g73
I3
ssg74
g2601
sg67
(lp2608
g1216
asbasbasbag60
(g76
g62
NtRp2609
(dp2610
g65
(dp2611
sg74
g2185
sg67
(lp2612
g60
(g81
g62
NtRp2613
(dp2614
g65
(dp2615
g85
g86
ssg74
g2609
sg67
(lp2616
S'wsgi.errors'
p2617
asbag60
(g81
g62
NtRp2618
(dp2619
g65
(dp2620
g92
g93
ssg74
g2609
sg67
(lp2621
S':'
asbag60
(g81
g62
NtRp2622
(dp2623
g65
(dp2624
sg74
g2609
sg67
(lp2625
g60
(g61
g62
NtRp2626
(dp2627
g65
(dp2628
g73
I3
ssg74
g2622
sg67
(lp2629
S"<open file '<stderr>', mode 'w' at 0x750b0>"
p2630
asbasbasbag60
(g76
g62
NtRp2631
(dp2632
g65
(dp2633
sg74
g2185
sg67
(lp2634
g60
(g81
g62
NtRp2635
(dp2636
g65
(dp2637
g85
g86
ssg74
g2631
sg67
(lp2638
S'wsgi.file_wrapper'
p2639
asbag60
(g81
g62
NtRp2640
(dp2641
g65
(dp2642
g92
g93
ssg74
g2631
sg67
(lp2643
S':'
asbag60
(g81
g62
NtRp2644
(dp2645
g65
(dp2646
sg74
g2631
sg67
(lp2647
g60
(g61
g62
NtRp2648
(dp2649
g65
(dp2650
g73
I3
ssg74
g2644
sg67
(lp2651
S'<class wsgiref.util.FileWrapper at 0x4033240>'
p2652
asbasbasbag60
(g76
g62
NtRp2653
(dp2654
g65
(dp2655
sg74
g2185
sg67
(lp2656
g60
(g81
g62
NtRp2657
(dp2658
g65
(dp2659
g85
g86
ssg74
g2653
sg67
(lp2660
S'wsgi.input'
p2661
asbag60
(g81
g62
NtRp2662
(dp2663
g65
(dp2664
g92
g93
ssg74
g2653
sg67
(lp2665
S':'
asbag60
(g81
g62
NtRp2666
(dp2667
g65
(dp2668
sg74
g2653
sg67
(lp2669
g60
(g61
g62
NtRp2670
(dp2671
g65
(dp2672
g73
I3
ssg74
g2666
sg67
(lp2673
S'<cStringIO.StringO object at 0x85339c0>'
p2674
asbasbasbag60
(g76
g62
NtRp2675
(dp2676
g65
(dp2677
sg74
g2185
sg67
(lp2678
g60
(g81
g62
NtRp2679
(dp2680
g65
(dp2681
g85
g86
ssg74
g2675
sg67
(lp2682
S'wsgi.multiprocess'
p2683
asbag60
(g81
g62
NtRp2684
(dp2685
g65
(dp2686
g92
g93
ssg74
g2675
sg67
(lp2687
S':'
asbag60
(g81
g62
NtRp2688
(dp2689
g65
(dp2690
sg74
g2675
sg67
(lp2691
g60
(g61
g62
NtRp2692
(dp2693
g65
(dp2694
g73
I3
ssg74
g2688
sg67
(lp2695
g103
asbasbasbag60
(g76
g62
NtRp2696
(dp2697
g65
(dp2698
sg74
g2185
sg67
(lp2699
g60
(g81
g62
NtRp2700
(dp2701
g65
(dp2702
g85
g86
ssg74
g2696
sg67
(lp2703
S'wsgi.multithread'
p2704
asbag60
(g81
g62
NtRp2705
(dp2706
g65
(dp2707
g92
g93
ssg74
g2696
sg67
(lp2708
S':'
asbag60
(g81
g62
NtRp2709
(dp2710
g65
(dp2711
sg74
g2696
sg67
(lp2712
g60
(g61
g62
NtRp2713
(dp2714
g65
(dp2715
g73
I3
ssg74
g2709
sg67
(lp2716
g1456
asbasbasbag60
(g76
g62
NtRp2717
(dp2718
g65
(dp2719
sg74
g2185
sg67
(lp2720
g60
(g81
g62
NtRp2721
(dp2722
g65
(dp2723
g85
g86
ssg74
g2717
sg67
(lp2724
S'wsgi.run_once'
p2725
asbag60
(g81
g62
NtRp2726
(dp2727
g65
(dp2728
g92
g93
ssg74
g2717
sg67
(lp2729
S':'
asbag60
(g81
g62
NtRp2730
(dp2731
g65
(dp2732
sg74
g2717
sg67
(lp2733
g60
(g61
g62
NtRp2734
(dp2735
g65
(dp2736
g73
I3
ssg74
g2730
sg67
(lp2737
g103
asbasbasbag60
(g76
g62
NtRp2738
(dp2739
g65
(dp2740
sg74
g2185
sg67
(lp2741
g60
(g81
g62
NtRp2742
(dp2743
g65
(dp2744
g85
g86
ssg74
g2738
sg67
(lp2745
S'wsgi.url_scheme'
p2746
asbag60
(g81
g62
NtRp2747
(dp2748
g65
(dp2749
g92
g93
ssg74
g2738
sg67
(lp2750
S':'
asbag60
(g81
g62
NtRp2751
(dp2752
g65
(dp2753
sg74
g2738
sg67
(lp2754
g60
(g61
g62
NtRp2755
(dp2756
g65
(dp2757
g73
I3
ssg74
g2751
sg67
(lp2758
g1499
asbasbasbag60
(g76
g62
NtRp2759
(dp2760
g65
(dp2761
sg74
g2185
sg67
(lp2762
g60
(g81
g62
NtRp2763
(dp2764
g65
(dp2765
g85
g86
ssg74
g2759
sg67
(lp2766
S'wsgi.version'
p2767
asbag60
(g81
g62
NtRp2768
(dp2769
g65
(dp2770
g92
g93
ssg74
g2759
sg67
(lp2771
S':'
asbag60
(g81
g62
NtRp2772
(dp2773
g65
(dp2774
sg74
g2759
sg67
(lp2775
g60
(g61
g62
NtRp2776
(dp2777
g65
(dp2778
g73
I3
ssg74
g2772
sg67
(lp2779
S'1'
asbasbasbasbasbasbasbasbasbasbasbasbasbsS'frames'
p2780
(lp2781
(dp2782
S'file'
p2783
S'/Users/rayelward/Downloads/web2py/web2py.app/Contents/Resources/gluon/restricted.py'
p2784
sS'dump'
p2785
(dp2786
sS'lnum'
p2787
I193
sS'lines'
p2788
(dp2789
sS'call'
p2790
S'(code=\'response.write(\\\'<!DOCTYPE html>\\\\n<html lang="\\\', ...nse.write(\\\'\\\\n  </body>\\\\n</html>\\\\n\\\', escape=False)\', environment={\'A\': <class \'gluon.html.A\'>, \'Auth\': <class \'gluon.tools.Auth\'>, \'B\': <class \'gluon.html.B\'>, \'BEAUTIFY\': <class \'gluon.html.BEAUTIFY\'>, \'BODY\': <class \'gluon.html.BODY\'>, \'BR\': <class \'gluon.html.BR\'>, \'BUTTON\': <class \'gluon.html.BUTTON\'>, \'CAT\': <class \'gluon.html.CAT\'>, \'CENTER\': <class \'gluon.html.CENTER\'>, \'CLEANUP\': <class \'gluon.validators.CLEANUP\'>, ...}, layer=\'/Users/rayelward/Downloads/web2py/web2py.app/Con...rces/applications/init/views/default/recents.html\')'
p2791
sS'func'
p2792
S'restricted'
p2793
sa(dp2794
g2783
S'/Users/rayelward/Downloads/web2py/web2py.app/Contents/Resources/gluon/restricted.py'
p2795
sg2785
(dp2796
sg2787
I179
sg2788
(dp2797
sg2790
S'(code=\'response.write(\\\'<!DOCTYPE html>\\\\n<html lang="\\\', ...nse.write(\\\'\\\\n  </body>\\\\n</html>\\\\n\\\', escape=False)\', layer=\'/Users/rayelward/Downloads/web2py/web2py.app/Con...rces/applications/init/views/default/recents.html\')'
p2798
sg2792
S'compile2'
p2799
sasS'pyver'
p2800
S'Python 2.5.1: /Users/rayelward/Downloads/web2py/web2py.app/Contents/MacOS/python'
p2801
sS'session'
p2802
g60
(g61
g62
NtRp2803
(dp2804
g65
(dp2805
sg67
(lp2806
g60
(g69
g62
NtRp2807
(dp2808
g65
(dp2809
g73
I5
ssg74
Nsg67
(lp2810
sbasbsS'etype'
p2811
S"<type 'exceptions.SyntaxError'>"
p2812
sS'date'
p2813
S'Mon Dec  5 19:45:12 2011'
p2814
sS'response'
p2815
g60
(g61
g62
NtRp2816
(dp2817
g65
(dp2818
sg67
(lp2819
g60
(g69
g62
NtRp2820
(dp2821
g65
(dp2822
g73
I5
ssg74
Nsg67
(lp2823
g60
(g76
g62
NtRp2824
(dp2825
g65
(dp2826
sg74
g2820
sg67
(lp2827
g60
(g81
g62
NtRp2828
(dp2829
g65
(dp2830
g85
g86
ssg74
g2824
sg67
(lp2831
g158
asbag60
(g81
g62
NtRp2832
(dp2833
g65
(dp2834
g92
g93
ssg74
g2824
sg67
(lp2835
S':'
asbag60
(g81
g62
NtRp2836
(dp2837
g65
(dp2838
sg74
g2824
sg67
(lp2839
g60
(g61
g62
NtRp2840
(dp2841
g65
(dp2842
g73
I5
ssg74
g2836
sg67
(lp2843
S'<cStringIO.StringO object at 0x8533840>'
p2844
asbasbasbag60
(g76
g62
NtRp2845
(dp2846
g65
(dp2847
sg74
g2820
sg67
(lp2848
g60
(g81
g62
NtRp2849
(dp2850
g65
(dp2851
g85
g86
ssg74
g2845
sg67
(lp2852
g224
asbag60
(g81
g62
NtRp2853
(dp2854
g65
(dp2855
g92
g93
ssg74
g2845
sg67
(lp2856
S':'
asbag60
(g81
g62
NtRp2857
(dp2858
g65
(dp2859
sg74
g2845
sg67
(lp2860
g60
(g61
g62
NtRp2861
(dp2862
g65
(dp2863
g73
I5
ssg74
g2857
sg67
(lp2864
g60
(g69
g62
NtRp2865
(dp2866
g65
(dp2867
g73
I4
ssg74
Nsg67
(lp2868
g60
(g76
g62
NtRp2869
(dp2870
g65
(dp2871
sg74
g2865
sg67
(lp2872
g60
(g81
g62
NtRp2873
(dp2874
g65
(dp2875
g85
g86
ssg74
g2869
sg67
(lp2876
S'session_id_init'
p2877
asbag60
(g81
g62
NtRp2878
(dp2879
g65
(dp2880
g92
g93
ssg74
g2869
sg67
(lp2881
S':'
asbag60
(g81
g62
NtRp2882
(dp2883
g65
(dp2884
sg74
g2869
sg67
(lp2885
g60
(g61
g62
NtRp2886
(dp2887
g65
(dp2888
g73
I4
ssg74
g2882
sg67
(lp2889
g60
(g69
g62
NtRp2890
(dp2891
g65
(dp2892
g73
I3
ssg74
Nsg67
(lp2893
g60
(g76
g62
NtRp2894
(dp2895
g65
(dp2896
sg74
g2890
sg67
(lp2897
g60
(g81
g62
NtRp2898
(dp2899
g65
(dp2900
g85
g86
ssg74
g2894
sg67
(lp2901
g274
asbag60
(g81
g62
NtRp2902
(dp2903
g65
(dp2904
g92
g93
ssg74
g2894
sg67
(lp2905
S':'
asbag60
(g81
g62
NtRp2906
(dp2907
g65
(dp2908
sg74
g2894
sg67
(lp2909
g60
(g61
g62
NtRp2910
(dp2911
g65
(dp2912
g73
I3
ssg74
g2906
sg67
(lp2913
S''
asbasbasbag60
(g76
g62
NtRp2914
(dp2915
g65
(dp2916
sg74
g2890
sg67
(lp2917
g60
(g81
g62
NtRp2918
(dp2919
g65
(dp2920
g85
g86
ssg74
g2914
sg67
(lp2921
g295
asbag60
(g81
g62
NtRp2922
(dp2923
g65
(dp2924
g92
g93
ssg74
g2914
sg67
(lp2925
S':'
asbag60
(g81
g62
NtRp2926
(dp2927
g65
(dp2928
sg74
g2914
sg67
(lp2929
g60
(g61
g62
NtRp2930
(dp2931
g65
(dp2932
g73
I3
ssg74
g2926
sg67
(lp2933
S''
asbasbasbag60
(g76
g62
NtRp2934
(dp2935
g65
(dp2936
sg74
g2890
sg67
(lp2937
g60
(g81
g62
NtRp2938
(dp2939
g65
(dp2940
g85
g86
ssg74
g2934
sg67
(lp2941
g316
asbag60
(g81
g62
NtRp2942
(dp2943
g65
(dp2944
g92
g93
ssg74
g2934
sg67
(lp2945
S':'
asbag60
(g81
g62
NtRp2946
(dp2947
g65
(dp2948
sg74
g2934
sg67
(lp2949
g60
(g61
g62
NtRp2950
(dp2951
g65
(dp2952
g73
I3
ssg74
g2946
sg67
(lp2953
S''
asbasbasbag60
(g76
g62
NtRp2954
(dp2955
g65
(dp2956
sg74
g2890
sg67
(lp2957
g60
(g81
g62
NtRp2958
(dp2959
g65
(dp2960
g85
g86
ssg74
g2954
sg67
(lp2961
g337
asbag60
(g81
g62
NtRp2962
(dp2963
g65
(dp2964
g92
g93
ssg74
g2954
sg67
(lp2965
S':'
asbag60
(g81
g62
NtRp2966
(dp2967
g65
(dp2968
sg74
g2954
sg67
(lp2969
g60
(g61
g62
NtRp2970
(dp2971
g65
(dp2972
g73
I3
ssg74
g2966
sg67
(lp2973
S''
asbasbasbag60
(g76
g62
NtRp2974
(dp2975
g65
(dp2976
sg74
g2890
sg67
(lp2977
g60
(g81
g62
NtRp2978
(dp2979
g65
(dp2980
g85
g86
ssg74
g2974
sg67
(lp2981
g358
asbag60
(g81
g62
NtRp2982
(dp2983
g65
(dp2984
g92
g93
ssg74
g2974
sg67
(lp2985
S':'
asbag60
(g81
g62
NtRp2986
(dp2987
g65
(dp2988
sg74
g2974
sg67
(lp2989
g60
(g61
g62
NtRp2990
(dp2991
g65
(dp2992
g73
I3
ssg74
g2986
sg67
(lp2993
S'/'
asbasbasbag60
(g76
g62
NtRp2994
(dp2995
g65
(dp2996
sg74
g2890
sg67
(lp2997
g60
(g81
g62
NtRp2998
(dp2999
g65
(dp3000
g85
g86
ssg74
g2994
sg67
(lp3001
g379
asbag60
(g81
g62
NtRp3002
(dp3003
g65
(dp3004
g92
g93
ssg74
g2994
sg67
(lp3005
S':'
asbag60
(g81
g62
NtRp3006
(dp3007
g65
(dp3008
sg74
g2994
sg67
(lp3009
g60
(g61
g62
NtRp3010
(dp3011
g65
(dp3012
g73
I3
ssg74
g3006
sg67
(lp3013
S''
asbasbasbag60
(g76
g62
NtRp3014
(dp3015
g65
(dp3016
sg74
g2890
sg67
(lp3017
g60
(g81
g62
NtRp3018
(dp3019
g65
(dp3020
g85
g86
ssg74
g3014
sg67
(lp3021
g400
asbag60
(g81
g62
NtRp3022
(dp3023
g65
(dp3024
g92
g93
ssg74
g3014
sg67
(lp3025
S':'
asbag60
(g81
g62
NtRp3026
(dp3027
g65
(dp3028
sg74
g3014
sg67
(lp3029
g60
(g61
g62
NtRp3030
(dp3031
g65
(dp3032
g73
I3
ssg74
g3026
sg67
(lp3033
S''
asbasbasbasbasbasbasbasbasbasbasbag60
(g76
g62
NtRp3034
(dp3035
g65
(dp3036
sg74
g2820
sg67
(lp3037
g60
(g81
g62
NtRp3038
(dp3039
g65
(dp3040
g85
g86
ssg74
g3034
sg67
(lp3041
S'files'
p3042
asbag60
(g81
g62
NtRp3043
(dp3044
g65
(dp3045
g92
g93
ssg74
g3034
sg67
(lp3046
S':'
asbag60
(g81
g62
NtRp3047
(dp3048
g65
(dp3049
sg74
g3034
sg67
(lp3050
g60
(g61
g62
NtRp3051
(dp3052
g65
(dp3053
g73
I5
ssg74
g3047
sg67
(lp3054
g60
(g69
g62
NtRp3055
(dp3056
g65
(dp3057
g73
I4
ssg74
Nsg67
(lp3058
sbasbasbasbag60
(g76
g62
NtRp3059
(dp3060
g65
(dp3061
sg74
g2820
sg67
(lp3062
g60
(g81
g62
NtRp3063
(dp3064
g65
(dp3065
g85
g86
ssg74
g3059
sg67
(lp3066
S'flash'
p3067
asbag60
(g81
g62
NtRp3068
(dp3069
g65
(dp3070
g92
g93
ssg74
g3059
sg67
(lp3071
S':'
asbag60
(g81
g62
NtRp3072
(dp3073
g65
(dp3074
sg74
g3059
sg67
(lp3075
g60
(g61
g62
NtRp3076
(dp3077
g65
(dp3078
g73
I5
ssg74
g3072
sg67
(lp3079
S''
asbasbasbag60
(g76
g62
NtRp3080
(dp3081
g65
(dp3082
sg74
g2820
sg67
(lp3083
g60
(g81
g62
NtRp3084
(dp3085
g65
(dp3086
g85
g86
ssg74
g3080
sg67
(lp3087
S'generic_patterns'
p3088
asbag60
(g81
g62
NtRp3089
(dp3090
g65
(dp3091
g92
g93
ssg74
g3080
sg67
(lp3092
S':'
asbag60
(g81
g62
NtRp3093
(dp3094
g65
(dp3095
sg74
g3080
sg67
(lp3096
g60
(g61
g62
NtRp3097
(dp3098
g65
(dp3099
g73
I5
ssg74
g3093
sg67
(lp3100
g60
(g69
g62
NtRp3101
(dp3102
g65
(dp3103
g73
I4
ssg74
Nsg67
(lp3104
g60
(g76
g62
NtRp3105
(dp3106
g65
(dp3107
sg74
g3101
sg67
(lp3108
g60
(g81
g62
NtRp3109
(dp3110
g65
(dp3111
sg74
g3105
sg67
(lp3112
g60
(g61
g62
NtRp3113
(dp3114
g65
(dp3115
g73
I4
ssg74
g3109
sg67
(lp3116
S'*'
asbasbasbasbasbasbasbag60
(g76
g62
NtRp3117
(dp3118
g65
(dp3119
sg74
g2820
sg67
(lp3120
g60
(g81
g62
NtRp3121
(dp3122
g65
(dp3123
g85
g86
ssg74
g3117
sg67
(lp3124
S'headers'
p3125
asbag60
(g81
g62
NtRp3126
(dp3127
g65
(dp3128
g92
g93
ssg74
g3117
sg67
(lp3129
S':'
asbag60
(g81
g62
NtRp3130
(dp3131
g65
(dp3132
sg74
g3117
sg67
(lp3133
g60
(g61
g62
NtRp3134
(dp3135
g65
(dp3136
g73
I5
ssg74
g3130
sg67
(lp3137
g60
(g69
g62
NtRp3138
(dp3139
g65
(dp3140
g73
I4
ssg74
Nsg67
(lp3141
g60
(g76
g62
NtRp3142
(dp3143
g65
(dp3144
sg74
g3138
sg67
(lp3145
g60
(g81
g62
NtRp3146
(dp3147
g65
(dp3148
g85
g86
ssg74
g3142
sg67
(lp3149
S'Cache-Control'
p3150
asbag60
(g81
g62
NtRp3151
(dp3152
g65
(dp3153
g92
g93
ssg74
g3142
sg67
(lp3154
S':'
asbag60
(g81
g62
NtRp3155
(dp3156
g65
(dp3157
sg74
g3142
sg67
(lp3158
g60
(g61
g62
NtRp3159
(dp3160
g65
(dp3161
g73
I4
ssg74
g3155
sg67
(lp3162
S'no-store, no-cache, must-revalidate, post-check=0, pre-check=0'
p3163
asbasbasbag60
(g76
g62
NtRp3164
(dp3165
g65
(dp3166
sg74
g3138
sg67
(lp3167
g60
(g81
g62
NtRp3168
(dp3169
g65
(dp3170
g85
g86
ssg74
g3164
sg67
(lp3171
S'Content-Type'
p3172
asbag60
(g81
g62
NtRp3173
(dp3174
g65
(dp3175
g92
g93
ssg74
g3164
sg67
(lp3176
S':'
asbag60
(g81
g62
NtRp3177
(dp3178
g65
(dp3179
sg74
g3164
sg67
(lp3180
g60
(g61
g62
NtRp3181
(dp3182
g65
(dp3183
g73
I4
ssg74
g3177
sg67
(lp3184
S'text/html; charset=utf-8'
p3185
asbasbasbag60
(g76
g62
NtRp3186
(dp3187
g65
(dp3188
sg74
g3138
sg67
(lp3189
g60
(g81
g62
NtRp3190
(dp3191
g65
(dp3192
g85
g86
ssg74
g3186
sg67
(lp3193
S'Expires'
p3194
asbag60
(g81
g62
NtRp3195
(dp3196
g65
(dp3197
g92
g93
ssg74
g3186
sg67
(lp3198
S':'
asbag60
(g81
g62
NtRp3199
(dp3200
g65
(dp3201
sg74
g3186
sg67
(lp3202
g60
(g61
g62
NtRp3203
(dp3204
g65
(dp3205
g73
I4
ssg74
g3199
sg67
(lp3206
S'Tue, 06 Dec 2011 01:45:12 GMT'
p3207
asbasbasbag60
(g76
g62
NtRp3208
(dp3209
g65
(dp3210
sg74
g3138
sg67
(lp3211
g60
(g81
g62
NtRp3212
(dp3213
g65
(dp3214
g85
g86
ssg74
g3208
sg67
(lp3215
S'Pragma'
p3216
asbag60
(g81
g62
NtRp3217
(dp3218
g65
(dp3219
g92
g93
ssg74
g3208
sg67
(lp3220
S':'
asbag60
(g81
g62
NtRp3221
(dp3222
g65
(dp3223
sg74
g3208
sg67
(lp3224
g60
(g61
g62
NtRp3225
(dp3226
g65
(dp3227
g73
I4
ssg74
g3221
sg67
(lp3228
S'no-cache'
p3229
asbasbasbag60
(g76
g62
NtRp3230
(dp3231
g65
(dp3232
sg74
g3138
sg67
(lp3233
g60
(g81
g62
NtRp3234
(dp3235
g65
(dp3236
g85
g86
ssg74
g3230
sg67
(lp3237
S'X-Powered-By'
p3238
asbag60
(g81
g62
NtRp3239
(dp3240
g65
(dp3241
g92
g93
ssg74
g3230
sg67
(lp3242
S':'
asbag60
(g81
g62
NtRp3243
(dp3244
g65
(dp3245
sg74
g3230
sg67
(lp3246
g60
(g61
g62
NtRp3247
(dp3248
g65
(dp3249
g73
I4
ssg74
g3243
sg67
(lp3250
S'web2py'
p3251
asbasbasbasbasbasbasbag60
(g76
g62
NtRp3252
(dp3253
g65
(dp3254
sg74
g2820
sg67
(lp3255
g60
(g81
g62
NtRp3256
(dp3257
g65
(dp3258
g85
g86
ssg74
g3252
sg67
(lp3259
S'menu'
p3260
asbag60
(g81
g62
NtRp3261
(dp3262
g65
(dp3263
g92
g93
ssg74
g3252
sg67
(lp3264
S':'
asbag60
(g81
g62
NtRp3265
(dp3266
g65
(dp3267
sg74
g3252
sg67
(lp3268
g60
(g61
g62
NtRp3269
(dp3270
g65
(dp3271
g73
I5
ssg74
g3265
sg67
(lp3272
g60
(g69
g62
NtRp3273
(dp3274
g65
(dp3275
g73
I4
ssg74
Nsg67
(lp3276
g60
(g76
g62
NtRp3277
(dp3278
g65
(dp3279
sg74
g3273
sg67
(lp3280
g60
(g81
g62
NtRp3281
(dp3282
g65
(dp3283
sg74
g3277
sg67
(lp3284
g60
(g61
g62
NtRp3285
(dp3286
g65
(dp3287
g73
I4
ssg74
g3281
sg67
(lp3288
g60
(g69
g62
NtRp3289
(dp3290
g65
(dp3291
g73
I3
ssg74
Nsg67
(lp3292
g60
(g76
g62
NtRp3293
(dp3294
g65
(dp3295
sg74
g3289
sg67
(lp3296
g60
(g81
g62
NtRp3297
(dp3298
g65
(dp3299
sg74
g3293
sg67
(lp3300
g60
(g61
g62
NtRp3301
(dp3302
g65
(dp3303
g73
I3
ssg74
g3297
sg67
(lp3304
cgluon.languages
lazyT_unpickle
p3305
(S's\x07\x00\x00\x00Recents'
tRp3306
asbasbasbag60
(g76
g62
NtRp3307
(dp3308
g65
(dp3309
sg74
g3289
sg67
(lp3310
g60
(g81
g62
NtRp3311
(dp3312
g65
(dp3313
sg74
g3307
sg67
(lp3314
g60
(g61
g62
NtRp3315
(dp3316
g65
(dp3317
g73
I3
ssg74
g3311
sg67
(lp3318
g103
asbasbasbag60
(g76
g62
NtRp3319
(dp3320
g65
(dp3321
sg74
g3289
sg67
(lp3322
g60
(g81
g62
NtRp3323
(dp3324
g65
(dp3325
sg74
g3319
sg67
(lp3326
g60
(g61
g62
NtRp3327
(dp3328
g65
(dp3329
g73
I3
ssg74
g3323
sg67
(lp3330
S'/init/default/recents'
p3331
asbasbasbag60
(g76
g62
NtRp3332
(dp3333
g65
(dp3334
sg74
g3289
sg67
(lp3335
g60
(g81
g62
NtRp3336
(dp3337
g65
(dp3338
sg74
g3332
sg67
(lp3339
g60
(g61
g62
NtRp3340
(dp3341
g65
(dp3342
g73
I3
ssg74
g3336
sg67
(lp3343
g60
(g69
g62
NtRp3344
(dp3345
g65
(dp3346
g73
I2
ssg74
Nsg67
(lp3347
sbasbasbasbasbasbasbasbag60
(g76
g62
NtRp3348
(dp3349
g65
(dp3350
sg74
g3273
sg67
(lp3351
g60
(g81
g62
NtRp3352
(dp3353
g65
(dp3354
sg74
g3348
sg67
(lp3355
g60
(g61
g62
NtRp3356
(dp3357
g65
(dp3358
g73
I4
ssg74
g3352
sg67
(lp3359
g60
(g69
g62
NtRp3360
(dp3361
g65
(dp3362
g73
I3
ssg74
Nsg67
(lp3363
g60
(g76
g62
NtRp3364
(dp3365
g65
(dp3366
sg74
g3360
sg67
(lp3367
g60
(g81
g62
NtRp3368
(dp3369
g65
(dp3370
sg74
g3364
sg67
(lp3371
g60
(g61
g62
NtRp3372
(dp3373
g65
(dp3374
g73
I3
ssg74
g3368
sg67
(lp3375
g3305
(S's\x06\x00\x00\x00Random'
tRp3376
asbasbasbag60
(g76
g62
NtRp3377
(dp3378
g65
(dp3379
sg74
g3360
sg67
(lp3380
g60
(g81
g62
NtRp3381
(dp3382
g65
(dp3383
sg74
g3377
sg67
(lp3384
g60
(g61
g62
NtRp3385
(dp3386
g65
(dp3387
g73
I3
ssg74
g3381
sg67
(lp3388
g103
asbasbasbag60
(g76
g62
NtRp3389
(dp3390
g65
(dp3391
sg74
g3360
sg67
(lp3392
g60
(g81
g62
NtRp3393
(dp3394
g65
(dp3395
sg74
g3389
sg67
(lp3396
g60
(g61
g62
NtRp3397
(dp3398
g65
(dp3399
g73
I3
ssg74
g3393
sg67
(lp3400
S'/init/default/random'
p3401
asbasbasbag60
(g76
g62
NtRp3402
(dp3403
g65
(dp3404
sg74
g3360
sg67
(lp3405
g60
(g81
g62
NtRp3406
(dp3407
g65
(dp3408
sg74
g3402
sg67
(lp3409
g60
(g61
g62
NtRp3410
(dp3411
g65
(dp3412
g73
I3
ssg74
g3406
sg67
(lp3413
g60
(g69
g62
NtRp3414
(dp3415
g65
(dp3416
g73
I2
ssg74
Nsg67
(lp3417
sbasbasbasbasbasbasbasbag60
(g76
g62
NtRp3418
(dp3419
g65
(dp3420
sg74
g3273
sg67
(lp3421
g60
(g81
g62
NtRp3422
(dp3423
g65
(dp3424
sg74
g3418
sg67
(lp3425
g60
(g61
g62
NtRp3426
(dp3427
g65
(dp3428
g73
I4
ssg74
g3422
sg67
(lp3429
g60
(g69
g62
NtRp3430
(dp3431
g65
(dp3432
g73
I3
ssg74
Nsg67
(lp3433
g60
(g76
g62
NtRp3434
(dp3435
g65
(dp3436
sg74
g3430
sg67
(lp3437
g60
(g81
g62
NtRp3438
(dp3439
g65
(dp3440
sg74
g3434
sg67
(lp3441
g60
(g61
g62
NtRp3442
(dp3443
g65
(dp3444
g73
I3
ssg74
g3438
sg67
(lp3445
g3305
(S's\x06\x00\x00\x00Search'
tRp3446
asbasbasbag60
(g76
g62
NtRp3447
(dp3448
g65
(dp3449
sg74
g3430
sg67
(lp3450
g60
(g81
g62
NtRp3451
(dp3452
g65
(dp3453
sg74
g3447
sg67
(lp3454
g60
(g61
g62
NtRp3455
(dp3456
g65
(dp3457
g73
I3
ssg74
g3451
sg67
(lp3458
g103
asbasbasbag60
(g76
g62
NtRp3459
(dp3460
g65
(dp3461
sg74
g3430
sg67
(lp3462
g60
(g81
g62
NtRp3463
(dp3464
g65
(dp3465
sg74
g3459
sg67
(lp3466
g60
(g61
g62
NtRp3467
(dp3468
g65
(dp3469
g73
I3
ssg74
g3463
sg67
(lp3470
S'/init/default/search'
p3471
asbasbasbag60
(g76
g62
NtRp3472
(dp3473
g65
(dp3474
sg74
g3430
sg67
(lp3475
g60
(g81
g62
NtRp3476
(dp3477
g65
(dp3478
sg74
g3472
sg67
(lp3479
g60
(g61
g62
NtRp3480
(dp3481
g65
(dp3482
g73
I3
ssg74
g3476
sg67
(lp3483
g60
(g69
g62
NtRp3484
(dp3485
g65
(dp3486
g73
I2
ssg74
Nsg67
(lp3487
sbasbasbasbasbasbasbasbag60
(g76
g62
NtRp3488
(dp3489
g65
(dp3490
sg74
g3273
sg67
(lp3491
g60
(g81
g62
NtRp3492
(dp3493
g65
(dp3494
sg74
g3488
sg67
(lp3495
g60
(g61
g62
NtRp3496
(dp3497
g65
(dp3498
g73
I4
ssg74
g3492
sg67
(lp3499
g60
(g69
g62
NtRp3500
(dp3501
g65
(dp3502
g73
I3
ssg74
Nsg67
(lp3503
g60
(g76
g62
NtRp3504
(dp3505
g65
(dp3506
sg74
g3500
sg67
(lp3507
g60
(g81
g62
NtRp3508
(dp3509
g65
(dp3510
sg74
g3504
sg67
(lp3511
g60
(g61
g62
NtRp3512
(dp3513
g65
(dp3514
g73
I3
ssg74
g3508
sg67
(lp3515
g3305
(S's\x06\x00\x00\x00Submit'
tRp3516
asbasbasbag60
(g76
g62
NtRp3517
(dp3518
g65
(dp3519
sg74
g3500
sg67
(lp3520
g60
(g81
g62
NtRp3521
(dp3522
g65
(dp3523
sg74
g3517
sg67
(lp3524
g60
(g61
g62
NtRp3525
(dp3526
g65
(dp3527
g73
I3
ssg74
g3521
sg67
(lp3528
g103
asbasbasbag60
(g76
g62
NtRp3529
(dp3530
g65
(dp3531
sg74
g3500
sg67
(lp3532
g60
(g81
g62
NtRp3533
(dp3534
g65
(dp3535
sg74
g3529
sg67
(lp3536
g60
(g61
g62
NtRp3537
(dp3538
g65
(dp3539
g73
I3
ssg74
g3533
sg67
(lp3540
S'/init/default/submit'
p3541
asbasbasbag60
(g76
g62
NtRp3542
(dp3543
g65
(dp3544
sg74
g3500
sg67
(lp3545
g60
(g81
g62
NtRp3546
(dp3547
g65
(dp3548
sg74
g3542
sg67
(lp3549
g60
(g61
g62
NtRp3550
(dp3551
g65
(dp3552
g73
I3
ssg74
g3546
sg67
(lp3553
g60
(g69
g62
NtRp3554
(dp3555
g65
(dp3556
g73
I2
ssg74
Nsg67
(lp3557
sbasbasbasbasbasbasbasbag60
(g76
g62
NtRp3558
(dp3559
g65
(dp3560
sg74
g3273
sg67
(lp3561
g60
(g81
g62
NtRp3562
(dp3563
g65
(dp3564
sg74
g3558
sg67
(lp3565
g60
(g61
g62
NtRp3566
(dp3567
g65
(dp3568
g73
I4
ssg74
g3562
sg67
(lp3569
g60
(g69
g62
NtRp3570
(dp3571
g65
(dp3572
g73
I3
ssg74
Nsg67
(lp3573
g60
(g76
g62
NtRp3574
(dp3575
g65
(dp3576
sg74
g3570
sg67
(lp3577
g60
(g81
g62
NtRp3578
(dp3579
g65
(dp3580
sg74
g3574
sg67
(lp3581
g60
(g61
g62
NtRp3582
(dp3583
g65
(dp3584
g73
I3
ssg74
g3578
sg67
(lp3585
g3305
(S's\x05\x00\x00\x00About'
tRp3586
asbasbasbag60
(g76
g62
NtRp3587
(dp3588
g65
(dp3589
sg74
g3570
sg67
(lp3590
g60
(g81
g62
NtRp3591
(dp3592
g65
(dp3593
sg74
g3587
sg67
(lp3594
g60
(g61
g62
NtRp3595
(dp3596
g65
(dp3597
g73
I3
ssg74
g3591
sg67
(lp3598
g103
asbasbasbag60
(g76
g62
NtRp3599
(dp3600
g65
(dp3601
sg74
g3570
sg67
(lp3602
g60
(g81
g62
NtRp3603
(dp3604
g65
(dp3605
sg74
g3599
sg67
(lp3606
g60
(g61
g62
NtRp3607
(dp3608
g65
(dp3609
g73
I3
ssg74
g3603
sg67
(lp3610
S'/init/default/about'
p3611
asbasbasbag60
(g76
g62
NtRp3612
(dp3613
g65
(dp3614
sg74
g3570
sg67
(lp3615
g60
(g81
g62
NtRp3616
(dp3617
g65
(dp3618
sg74
g3612
sg67
(lp3619
g60
(g61
g62
NtRp3620
(dp3621
g65
(dp3622
g73
I3
ssg74
g3616
sg67
(lp3623
g60
(g69
g62
NtRp3624
(dp3625
g65
(dp3626
g73
I2
ssg74
Nsg67
(lp3627
sbasbasbasbasbasbasbasbasbasbasbasbag60
(g76
g62
NtRp3628
(dp3629
g65
(dp3630
sg74
g2820
sg67
(lp3631
g60
(g81
g62
NtRp3632
(dp3633
g65
(dp3634
g85
g86
ssg74
g3628
sg67
(lp3635
S'meta'
p3636
asbag60
(g81
g62
NtRp3637
(dp3638
g65
(dp3639
g92
g93
ssg74
g3628
sg67
(lp3640
S':'
asbag60
(g81
g62
NtRp3641
(dp3642
g65
(dp3643
sg74
g3628
sg67
(lp3644
g60
(g61
g62
NtRp3645
(dp3646
g65
(dp3647
g73
I5
ssg74
g3641
sg67
(lp3648
g60
(g69
g62
NtRp3649
(dp3650
g65
(dp3651
g73
I4
ssg74
Nsg67
(lp3652
g60
(g76
g62
NtRp3653
(dp3654
g65
(dp3655
sg74
g3649
sg67
(lp3656
g60
(g81
g62
NtRp3657
(dp3658
g65
(dp3659
g85
g86
ssg74
g3653
sg67
(lp3660
S'author'
p3661
asbag60
(g81
g62
NtRp3662
(dp3663
g65
(dp3664
g92
g93
ssg74
g3653
sg67
(lp3665
S':'
asbag60
(g81
g62
NtRp3666
(dp3667
g65
(dp3668
sg74
g3653
sg67
(lp3669
g60
(g61
g62
NtRp3670
(dp3671
g65
(dp3672
g73
I4
ssg74
g3666
sg67
(lp3673
S'Raymond Elward <feedback.lioli@gmail.com'
p3674
asbasbasbag60
(g76
g62
NtRp3675
(dp3676
g65
(dp3677
sg74
g3649
sg67
(lp3678
g60
(g81
g62
NtRp3679
(dp3680
g65
(dp3681
g85
g86
ssg74
g3675
sg67
(lp3682
S'copyright'
p3683
asbag60
(g81
g62
NtRp3684
(dp3685
g65
(dp3686
g92
g93
ssg74
g3675
sg67
(lp3687
S':'
asbag60
(g81
g62
NtRp3688
(dp3689
g65
(dp3690
sg74
g3675
sg67
(lp3691
g60
(g61
g62
NtRp3692
(dp3693
g65
(dp3694
g73
I4
ssg74
g3688
sg67
(lp3695
S'Copyright 2012'
p3696
asbasbasbag60
(g76
g62
NtRp3697
(dp3698
g65
(dp3699
sg74
g3649
sg67
(lp3700
g60
(g81
g62
NtRp3701
(dp3702
g65
(dp3703
g85
g86
ssg74
g3697
sg67
(lp3704
S'description'
p3705
asbag60
(g81
g62
NtRp3706
(dp3707
g65
(dp3708
g92
g93
ssg74
g3697
sg67
(lp3709
S':'
asbag60
(g81
g62
NtRp3710
(dp3711
g65
(dp3712
sg74
g3697
sg67
(lp3713
g60
(g61
g62
NtRp3714
(dp3715
g65
(dp3716
g73
I4
ssg74
g3710
sg67
(lp3717
S'Love it or Leave it'
p3718
asbasbasbag60
(g76
g62
NtRp3719
(dp3720
g65
(dp3721
sg74
g3649
sg67
(lp3722
g60
(g81
g62
NtRp3723
(dp3724
g65
(dp3725
g85
g86
ssg74
g3719
sg67
(lp3726
S'generator'
p3727
asbag60
(g81
g62
NtRp3728
(dp3729
g65
(dp3730
g92
g93
ssg74
g3719
sg67
(lp3731
S':'
asbag60
(g81
g62
NtRp3732
(dp3733
g65
(dp3734
sg74
g3719
sg67
(lp3735
g60
(g61
g62
NtRp3736
(dp3737
g65
(dp3738
g73
I4
ssg74
g3732
sg67
(lp3739
S'Web2py Web Framework'
p3740
asbasbasbag60
(g76
g62
NtRp3741
(dp3742
g65
(dp3743
sg74
g3649
sg67
(lp3744
g60
(g81
g62
NtRp3745
(dp3746
g65
(dp3747
g85
g86
ssg74
g3741
sg67
(lp3748
S'keywords'
p3749
asbag60
(g81
g62
NtRp3750
(dp3751
g65
(dp3752
g92
g93
ssg74
g3741
sg67
(lp3753
S':'
asbag60
(g81
g62
NtRp3754
(dp3755
g65
(dp3756
sg74
g3741
sg67
(lp3757
g60
(g61
g62
NtRp3758
(dp3759
g65
(dp3760
g73
I4
ssg74
g3754
sg67
(lp3761
S'leave, love, entertainment, love it, leave it, love it or leave it, fun, iOS, heart, relationship, relationships'
p3762
asbasbasbasbasbasbasbag60
(g76
g62
NtRp3763
(dp3764
g65
(dp3765
sg74
g2820
sg67
(lp3766
g60
(g81
g62
NtRp3767
(dp3768
g65
(dp3769
g85
g86
ssg74
g3763
sg67
(lp3770
S'postprocessing'
p3771
asbag60
(g81
g62
NtRp3772
(dp3773
g65
(dp3774
g92
g93
ssg74
g3763
sg67
(lp3775
S':'
asbag60
(g81
g62
NtRp3776
(dp3777
g65
(dp3778
sg74
g3763
sg67
(lp3779
g60
(g61
g62
NtRp3780
(dp3781
g65
(dp3782
g73
I5
ssg74
g3776
sg67
(lp3783
g60
(g69
g62
NtRp3784
(dp3785
g65
(dp3786
g73
I4
ssg74
Nsg67
(lp3787
sbasbasbasbag60
(g76
g62
NtRp3788
(dp3789
g65
(dp3790
sg74
g2820
sg67
(lp3791
g60
(g81
g62
NtRp3792
(dp3793
g65
(dp3794
g85
g86
ssg74
g3788
sg67
(lp3795
S'session_filename'
p3796
asbag60
(g81
g62
NtRp3797
(dp3798
g65
(dp3799
g92
g93
ssg74
g3788
sg67
(lp3800
S':'
asbag60
(g81
g62
NtRp3801
(dp3802
g65
(dp3803
sg74
g3788
sg67
(lp3804
g60
(g61
g62
NtRp3805
(dp3806
g65
(dp3807
g73
I5
ssg74
g3801
sg67
(lp3808
S'/Users/rayelward/Downloads/web2py/web2py.app/Contents/Resources/applications/init/sessions/127.0.0.1-5aff6ece-f131-4d13-ba57-b91a3745ab3f'
p3809
asbasbasbag60
(g76
g62
NtRp3810
(dp3811
g65
(dp3812
sg74
g2820
sg67
(lp3813
g60
(g81
g62
NtRp3814
(dp3815
g65
(dp3816
g85
g86
ssg74
g3810
sg67
(lp3817
S'session_id'
p3818
asbag60
(g81
g62
NtRp3819
(dp3820
g65
(dp3821
g92
g93
ssg74
g3810
sg67
(lp3822
S':'
asbag60
(g81
g62
NtRp3823
(dp3824
g65
(dp3825
sg74
g3810
sg67
(lp3826
g60
(g61
g62
NtRp3827
(dp3828
g65
(dp3829
g73
I5
ssg74
g3823
sg67
(lp3830
S'127.0.0.1-5aff6ece-f131-4d13-ba57-b91a3745ab3f'
p3831
asbasbasbag60
(g76
g62
NtRp3832
(dp3833
g65
(dp3834
sg74
g2820
sg67
(lp3835
g60
(g81
g62
NtRp3836
(dp3837
g65
(dp3838
g85
g86
ssg74
g3832
sg67
(lp3839
S'session_id_name'
p3840
asbag60
(g81
g62
NtRp3841
(dp3842
g65
(dp3843
g92
g93
ssg74
g3832
sg67
(lp3844
S':'
asbag60
(g81
g62
NtRp3845
(dp3846
g65
(dp3847
sg74
g3832
sg67
(lp3848
g60
(g61
g62
NtRp3849
(dp3850
g65
(dp3851
g73
I5
ssg74
g3845
sg67
(lp3852
g2877
asbasbasbag60
(g76
g62
NtRp3853
(dp3854
g65
(dp3855
sg74
g2820
sg67
(lp3856
g60
(g81
g62
NtRp3857
(dp3858
g65
(dp3859
g85
g86
ssg74
g3853
sg67
(lp3860
S'session_new'
p3861
asbag60
(g81
g62
NtRp3862
(dp3863
g65
(dp3864
g92
g93
ssg74
g3853
sg67
(lp3865
S':'
asbag60
(g81
g62
NtRp3866
(dp3867
g65
(dp3868
sg74
g3853
sg67
(lp3869
g60
(g61
g62
NtRp3870
(dp3871
g65
(dp3872
g73
I5
ssg74
g3866
sg67
(lp3873
g1456
asbasbasbag60
(g76
g62
NtRp3874
(dp3875
g65
(dp3876
sg74
g2820
sg67
(lp3877
g60
(g81
g62
NtRp3878
(dp3879
g65
(dp3880
g85
g86
ssg74
g3874
sg67
(lp3881
S'status'
p3882
asbag60
(g81
g62
NtRp3883
(dp3884
g65
(dp3885
g92
g93
ssg74
g3874
sg67
(lp3886
S':'
asbag60
(g81
g62
NtRp3887
(dp3888
g65
(dp3889
sg74
g3874
sg67
(lp3890
g60
(g61
g62
NtRp3891
(dp3892
g65
(dp3893
g73
I5
ssg74
g3887
sg67
(lp3894
S'200'
p3895
asbasbasbag60
(g76
g62
NtRp3896
(dp3897
g65
(dp3898
sg74
g2820
sg67
(lp3899
g60
(g81
g62
NtRp3900
(dp3901
g65
(dp3902
g85
g86
ssg74
g3896
sg67
(lp3903
S'subtitle'
p3904
asbag60
(g81
g62
NtRp3905
(dp3906
g65
(dp3907
g92
g93
ssg74
g3896
sg67
(lp3908
S':'
asbag60
(g81
g62
NtRp3909
(dp3910
g65
(dp3911
sg74
g3896
sg67
(lp3912
g60
(g61
g62
NtRp3913
(dp3914
g65
(dp3915
g73
I5
ssg74
g3909
sg67
(lp3916
S'love it or leave it'
p3917
asbasbasbag60
(g76
g62
NtRp3918
(dp3919
g65
(dp3920
sg74
g2820
sg67
(lp3921
g60
(g81
g62
NtRp3922
(dp3923
g65
(dp3924
g85
g86
ssg74
g3918
sg67
(lp3925
S'title'
p3926
asbag60
(g81
g62
NtRp3927
(dp3928
g65
(dp3929
g92
g93
ssg74
g3918
sg67
(lp3930
S':'
asbag60
(g81
g62
NtRp3931
(dp3932
g65
(dp3933
sg74
g3918
sg67
(lp3934
g60
(g61
g62
NtRp3935
(dp3936
g65
(dp3937
g73
I5
ssg74
g3931
sg67
(lp3938
S'LIOLI'
p3939
asbasbasbag60
(g76
g62
NtRp3940
(dp3941
g65
(dp3942
sg74
g2820
sg67
(lp3943
g60
(g81
g62
NtRp3944
(dp3945
g65
(dp3946
g85
g86
ssg74
g3940
sg67
(lp3947
g2100
asbag60
(g81
g62
NtRp3948
(dp3949
g65
(dp3950
g92
g93
ssg74
g3940
sg67
(lp3951
S':'
asbag60
(g81
g62
NtRp3952
(dp3953
g65
(dp3954
sg74
g3940
sg67
(lp3955
g60
(g61
g62
NtRp3956
(dp3957
g65
(dp3958
g73
I5
ssg74
g3952
sg67
(lp3959
g2113
asbasbasbag60
(g76
g62
NtRp3960
(dp3961
g65
(dp3962
sg74
g2820
sg67
(lp3963
g60
(g81
g62
NtRp3964
(dp3965
g65
(dp3966
g85
g86
ssg74
g3960
sg67
(lp3967
S'view'
p3968
asbag60
(g81
g62
NtRp3969
(dp3970
g65
(dp3971
g92
g93
ssg74
g3960
sg67
(lp3972
S':'
asbag60
(g81
g62
NtRp3973
(dp3974
g65
(dp3975
sg74
g3960
sg67
(lp3976
g60
(g61
g62
NtRp3977
(dp3978
g65
(dp3979
g73
I5
ssg74
g3973
sg67
(lp3980
S'default/recents.html'
p3981
asbasbasbasbasbsS'locals'
p3982
(dp3983
g3
S"'/Users/rayelward/Downloads/web2py/web2py.app/Con...rces/applications/init/views/default/recents.html'"
p3984
sg5
S'\'response.write(\\\'<!DOCTYPE html>\\\\n<html lang="\\\', ...nse.write(\\\'\\\\n  </body>\\\\n</html>\\\\n\\\', escape=False)\''
p3985
sssS'traceback'
p3986
S'Traceback (most recent call last):\n  File "gluon/restricted.py", line 193, in restricted\n  File "gluon/restricted.py", line 179, in compile2\n  File "/Users/rayelward/Downloads/web2py/web2py.app/Contents/Resources/applications/init/views/default/recents.html", line 46\n    right_sidebar_enabled True\n                             ^\nSyntaxError: invalid syntax\n'
p3987
s.